

Microchip MPLAB XC8 Assembler V2.20 build 20200408173844 
                                                                                               Thu May 07 00:25:40 2020

Microchip MPLAB XC8 C Compiler v2.20 (Free license) build 20200408173844 Og1 
     1                           	processor	16F1827
     2                           	pagewidth 120
     3                           	opt	flic
     4                           	psect	stringtext1,global,class=STRCODE,delta=2,noexec
     5                           	psect	stringtext2,global,class=STRCODE,delta=2,noexec
     6                           	psect	stringtext3,global,class=STRCODE,delta=2,noexec
     7                           	psect	stringtext4,global,class=STRCODE,delta=2,noexec
     8                           	psect	stringtext5,global,class=STRCODE,delta=2,noexec
     9                           	psect	stringtext6,global,class=STRCODE,delta=2,noexec
    10                           	psect	cinit,global,class=CODE,merge=1,delta=2
    11                           	psect	bssBANK0,global,class=BANK0,space=1,delta=1,noexec
    12                           	psect	cstackCOMMON,global,class=COMMON,space=1,delta=1,noexec
    13                           	psect	cstackBANK0,global,class=BANK0,space=1,delta=1,noexec
    14                           	psect	maintext,global,class=CODE,merge=1,split=1,delta=2
    15                           	psect	text1,local,class=CODE,merge=1,delta=2
    16                           	psect	text2,local,class=CODE,merge=1,delta=2
    17                           	psect	text3,local,class=CODE,merge=1,delta=2,group=1
    18                           	psect	text4,local,class=CODE,merge=1,delta=2,group=2
    19                           	psect	text5,local,class=CODE,merge=1,delta=2,group=2
    20                           	psect	text6,local,class=CODE,merge=1,delta=2
    21                           	psect	text7,local,class=CODE,merge=1,delta=2
    22                           	psect	text8,local,class=CODE,merge=1,delta=2
    23                           	psect	text9,local,class=CODE,merge=1,delta=2
    24                           	psect	text10,local,class=CODE,merge=1,delta=2
    25                           	psect	text11,local,class=CODE,merge=1,delta=2
    26                           	psect	text12,local,class=CODE,merge=1,delta=2
    27                           	psect	text13,local,class=CODE,merge=1,delta=2
    28                           	psect	text14,local,class=CODE,merge=1,delta=2
    29                           	psect	text15,local,class=CODE,merge=1,delta=2
    30                           	psect	text16,local,class=CODE,merge=1,delta=2
    31                           	psect	text17,local,class=CODE,merge=1,delta=2
    32                           	psect	config,global,abs,ovrld,class=CONFIG,space=4,delta=2,noexec
    33                           	dabs	1,0x7E,2
    34  0000                     
    35                           ; Version 2.20
    36                           ; Generated 12/02/2020 GMT
    37                           ; 
    38                           ; Copyright © 2020, Microchip Technology Inc. and its subsidiaries ("Microchip")
    39                           ; All rights reserved.
    40                           ; 
    41                           ; This software is developed by Microchip Technology Inc. and its subsidiaries ("Microch
      +                          ip").
    42                           ; 
    43                           ; Redistribution and use in source and binary forms, with or without modification, are
    44                           ; permitted provided that the following conditions are met:
    45                           ; 
    46                           ;     1. Redistributions of source code must retain the above copyright notice, this lis
      +                          t of
    47                           ;        conditions and the following disclaimer.
    48                           ; 
    49                           ;     2. Redistributions in binary form must reproduce the above copyright notice, this 
      +                          list
    50                           ;        of conditions and the following disclaimer in the documentation and/or other
    51                           ;        materials provided with the distribution.
    52                           ; 
    53                           ;     3. Microchip's name may not be used to endorse or promote products derived from th
      +                          is
    54                           ;        software without specific prior written permission.
    55                           ; 
    56                           ; THIS SOFTWARE IS PROVIDED BY MICROCHIP "AS IS" AND ANY EXPRESS OR IMPLIED WARRANTIES,
    57                           ; INCLUDING, BUT NOT LIMITED TO, THE IMPLIED WARRANTIES OF MERCHANTABILITY AND FITNESS F
      +                          OR
    58                           ; PURPOSE ARE DISCLAIMED.  IN NO EVENT SHALL MICROCHIP BE LIABLE FOR ANY DIRECT, INDIREC
      +                          T,
    59                           ; INCIDENTAL, SPECIAL, EXEMPLARY, OR CONSEQUENTIAL DAMAGES (INCLUDING BUT NOT LIMITED TO
    60                           ; PROCUREMENT OF SUBSTITUTE GOODS OR SERVICES; LOSS OF USE, DATA OR PROFITS; OR BUSINESS
    61                           ; INTERRUPTION) HOWSOEVER CAUSED AND ON ANY THEORY OF LIABILITY, WHETHER IN CONTRACT, ST
      +                          RICT
    62                           ; LIABILITY, OR TORT (INCLUDING NEGLIGENCE OR OTHERWISE) ARISING IN ANY WAY OUT OF THE U
      +                          SE OF
    63                           ; THIS SOFTWARE, EVEN IF ADVISED OF THE POSSIBILITY OF SUCH DAMAGE.
    64                           ; 
    65                           ; 
    66                           ; Code-generator required, PIC16F1827 Definitions
    67                           ; 
    68                           ; SFR Addresses
    69  0000                     	;# 
    70  0001                     	;# 
    71  0002                     	;# 
    72  0003                     	;# 
    73  0004                     	;# 
    74  0005                     	;# 
    75  0006                     	;# 
    76  0007                     	;# 
    77  0008                     	;# 
    78  0009                     	;# 
    79  000A                     	;# 
    80  000B                     	;# 
    81  000C                     	;# 
    82  000D                     	;# 
    83  0011                     	;# 
    84  0012                     	;# 
    85  0013                     	;# 
    86  0014                     	;# 
    87  0015                     	;# 
    88  0016                     	;# 
    89  0016                     	;# 
    90  0017                     	;# 
    91  0018                     	;# 
    92  0019                     	;# 
    93  001A                     	;# 
    94  001B                     	;# 
    95  001C                     	;# 
    96  001E                     	;# 
    97  001F                     	;# 
    98  008C                     	;# 
    99  008D                     	;# 
   100  0091                     	;# 
   101  0092                     	;# 
   102  0093                     	;# 
   103  0094                     	;# 
   104  0095                     	;# 
   105  0096                     	;# 
   106  0097                     	;# 
   107  0098                     	;# 
   108  0099                     	;# 
   109  009A                     	;# 
   110  009B                     	;# 
   111  009B                     	;# 
   112  009C                     	;# 
   113  009D                     	;# 
   114  009E                     	;# 
   115  010C                     	;# 
   116  010D                     	;# 
   117  0111                     	;# 
   118  0112                     	;# 
   119  0113                     	;# 
   120  0114                     	;# 
   121  0115                     	;# 
   122  0116                     	;# 
   123  0117                     	;# 
   124  0118                     	;# 
   125  0119                     	;# 
   126  011A                     	;# 
   127  011B                     	;# 
   128  011D                     	;# 
   129  011E                     	;# 
   130  018C                     	;# 
   131  018D                     	;# 
   132  0191                     	;# 
   133  0191                     	;# 
   134  0192                     	;# 
   135  0193                     	;# 
   136  0193                     	;# 
   137  0193                     	;# 
   138  0194                     	;# 
   139  0195                     	;# 
   140  0196                     	;# 
   141  0199                     	;# 
   142  019A                     	;# 
   143  019B                     	;# 
   144  019B                     	;# 
   145  019B                     	;# 
   146  019B                     	;# 
   147  019C                     	;# 
   148  019C                     	;# 
   149  019D                     	;# 
   150  019E                     	;# 
   151  019F                     	;# 
   152  020C                     	;# 
   153  020D                     	;# 
   154  0211                     	;# 
   155  0211                     	;# 
   156  0212                     	;# 
   157  0212                     	;# 
   158  0213                     	;# 
   159  0213                     	;# 
   160  0214                     	;# 
   161  0214                     	;# 
   162  0215                     	;# 
   163  0215                     	;# 
   164  0215                     	;# 
   165  0216                     	;# 
   166  0216                     	;# 
   167  0217                     	;# 
   168  0217                     	;# 
   169  0219                     	;# 
   170  021A                     	;# 
   171  021B                     	;# 
   172  021C                     	;# 
   173  021D                     	;# 
   174  021E                     	;# 
   175  021F                     	;# 
   176  0291                     	;# 
   177  0291                     	;# 
   178  0292                     	;# 
   179  0293                     	;# 
   180  0294                     	;# 
   181  0295                     	;# 
   182  0295                     	;# 
   183  0296                     	;# 
   184  0298                     	;# 
   185  0298                     	;# 
   186  0299                     	;# 
   187  029A                     	;# 
   188  029B                     	;# 
   189  029C                     	;# 
   190  029C                     	;# 
   191  029D                     	;# 
   192  029E                     	;# 
   193  029E                     	;# 
   194  0311                     	;# 
   195  0311                     	;# 
   196  0312                     	;# 
   197  0313                     	;# 
   198  0318                     	;# 
   199  0318                     	;# 
   200  0319                     	;# 
   201  031A                     	;# 
   202  0394                     	;# 
   203  0395                     	;# 
   204  0396                     	;# 
   205  039A                     	;# 
   206  039C                     	;# 
   207  039D                     	;# 
   208  039E                     	;# 
   209  039F                     	;# 
   210  0415                     	;# 
   211  0416                     	;# 
   212  0417                     	;# 
   213  041C                     	;# 
   214  041D                     	;# 
   215  041E                     	;# 
   216  0FE4                     	;# 
   217  0FE5                     	;# 
   218  0FE6                     	;# 
   219  0FE7                     	;# 
   220  0FE8                     	;# 
   221  0FE9                     	;# 
   222  0FEA                     	;# 
   223  0FEB                     	;# 
   224  0FED                     	;# 
   225  0FEE                     	;# 
   226  0FEF                     	;# 
   227  0000                     	;# 
   228  0001                     	;# 
   229  0002                     	;# 
   230  0003                     	;# 
   231  0004                     	;# 
   232  0005                     	;# 
   233  0006                     	;# 
   234  0007                     	;# 
   235  0008                     	;# 
   236  0009                     	;# 
   237  000A                     	;# 
   238  000B                     	;# 
   239  000C                     	;# 
   240  000D                     	;# 
   241  0011                     	;# 
   242  0012                     	;# 
   243  0013                     	;# 
   244  0014                     	;# 
   245  0015                     	;# 
   246  0016                     	;# 
   247  0016                     	;# 
   248  0017                     	;# 
   249  0018                     	;# 
   250  0019                     	;# 
   251  001A                     	;# 
   252  001B                     	;# 
   253  001C                     	;# 
   254  001E                     	;# 
   255  001F                     	;# 
   256  008C                     	;# 
   257  008D                     	;# 
   258  0091                     	;# 
   259  0092                     	;# 
   260  0093                     	;# 
   261  0094                     	;# 
   262  0095                     	;# 
   263  0096                     	;# 
   264  0097                     	;# 
   265  0098                     	;# 
   266  0099                     	;# 
   267  009A                     	;# 
   268  009B                     	;# 
   269  009B                     	;# 
   270  009C                     	;# 
   271  009D                     	;# 
   272  009E                     	;# 
   273  010C                     	;# 
   274  010D                     	;# 
   275  0111                     	;# 
   276  0112                     	;# 
   277  0113                     	;# 
   278  0114                     	;# 
   279  0115                     	;# 
   280  0116                     	;# 
   281  0117                     	;# 
   282  0118                     	;# 
   283  0119                     	;# 
   284  011A                     	;# 
   285  011B                     	;# 
   286  011D                     	;# 
   287  011E                     	;# 
   288  018C                     	;# 
   289  018D                     	;# 
   290  0191                     	;# 
   291  0191                     	;# 
   292  0192                     	;# 
   293  0193                     	;# 
   294  0193                     	;# 
   295  0193                     	;# 
   296  0194                     	;# 
   297  0195                     	;# 
   298  0196                     	;# 
   299  0199                     	;# 
   300  019A                     	;# 
   301  019B                     	;# 
   302  019B                     	;# 
   303  019B                     	;# 
   304  019B                     	;# 
   305  019C                     	;# 
   306  019C                     	;# 
   307  019D                     	;# 
   308  019E                     	;# 
   309  019F                     	;# 
   310  020C                     	;# 
   311  020D                     	;# 
   312  0211                     	;# 
   313  0211                     	;# 
   314  0212                     	;# 
   315  0212                     	;# 
   316  0213                     	;# 
   317  0213                     	;# 
   318  0214                     	;# 
   319  0214                     	;# 
   320  0215                     	;# 
   321  0215                     	;# 
   322  0215                     	;# 
   323  0216                     	;# 
   324  0216                     	;# 
   325  0217                     	;# 
   326  0217                     	;# 
   327  0219                     	;# 
   328  021A                     	;# 
   329  021B                     	;# 
   330  021C                     	;# 
   331  021D                     	;# 
   332  021E                     	;# 
   333  021F                     	;# 
   334  0291                     	;# 
   335  0291                     	;# 
   336  0292                     	;# 
   337  0293                     	;# 
   338  0294                     	;# 
   339  0295                     	;# 
   340  0295                     	;# 
   341  0296                     	;# 
   342  0298                     	;# 
   343  0298                     	;# 
   344  0299                     	;# 
   345  029A                     	;# 
   346  029B                     	;# 
   347  029C                     	;# 
   348  029C                     	;# 
   349  029D                     	;# 
   350  029E                     	;# 
   351  029E                     	;# 
   352  0311                     	;# 
   353  0311                     	;# 
   354  0312                     	;# 
   355  0313                     	;# 
   356  0318                     	;# 
   357  0318                     	;# 
   358  0319                     	;# 
   359  031A                     	;# 
   360  0394                     	;# 
   361  0395                     	;# 
   362  0396                     	;# 
   363  039A                     	;# 
   364  039C                     	;# 
   365  039D                     	;# 
   366  039E                     	;# 
   367  039F                     	;# 
   368  0415                     	;# 
   369  0416                     	;# 
   370  0417                     	;# 
   371  041C                     	;# 
   372  041D                     	;# 
   373  041E                     	;# 
   374  0FE4                     	;# 
   375  0FE5                     	;# 
   376  0FE6                     	;# 
   377  0FE7                     	;# 
   378  0FE8                     	;# 
   379  0FE9                     	;# 
   380  0FEA                     	;# 
   381  0FEB                     	;# 
   382  0FED                     	;# 
   383  0FEE                     	;# 
   384  0FEF                     	;# 
   385  0000                     	;# 
   386  0001                     	;# 
   387  0002                     	;# 
   388  0003                     	;# 
   389  0004                     	;# 
   390  0005                     	;# 
   391  0006                     	;# 
   392  0007                     	;# 
   393  0008                     	;# 
   394  0009                     	;# 
   395  000A                     	;# 
   396  000B                     	;# 
   397  000C                     	;# 
   398  000D                     	;# 
   399  0011                     	;# 
   400  0012                     	;# 
   401  0013                     	;# 
   402  0014                     	;# 
   403  0015                     	;# 
   404  0016                     	;# 
   405  0016                     	;# 
   406  0017                     	;# 
   407  0018                     	;# 
   408  0019                     	;# 
   409  001A                     	;# 
   410  001B                     	;# 
   411  001C                     	;# 
   412  001E                     	;# 
   413  001F                     	;# 
   414  008C                     	;# 
   415  008D                     	;# 
   416  0091                     	;# 
   417  0092                     	;# 
   418  0093                     	;# 
   419  0094                     	;# 
   420  0095                     	;# 
   421  0096                     	;# 
   422  0097                     	;# 
   423  0098                     	;# 
   424  0099                     	;# 
   425  009A                     	;# 
   426  009B                     	;# 
   427  009B                     	;# 
   428  009C                     	;# 
   429  009D                     	;# 
   430  009E                     	;# 
   431  010C                     	;# 
   432  010D                     	;# 
   433  0111                     	;# 
   434  0112                     	;# 
   435  0113                     	;# 
   436  0114                     	;# 
   437  0115                     	;# 
   438  0116                     	;# 
   439  0117                     	;# 
   440  0118                     	;# 
   441  0119                     	;# 
   442  011A                     	;# 
   443  011B                     	;# 
   444  011D                     	;# 
   445  011E                     	;# 
   446  018C                     	;# 
   447  018D                     	;# 
   448  0191                     	;# 
   449  0191                     	;# 
   450  0192                     	;# 
   451  0193                     	;# 
   452  0193                     	;# 
   453  0193                     	;# 
   454  0194                     	;# 
   455  0195                     	;# 
   456  0196                     	;# 
   457  0199                     	;# 
   458  019A                     	;# 
   459  019B                     	;# 
   460  019B                     	;# 
   461  019B                     	;# 
   462  019B                     	;# 
   463  019C                     	;# 
   464  019C                     	;# 
   465  019D                     	;# 
   466  019E                     	;# 
   467  019F                     	;# 
   468  020C                     	;# 
   469  020D                     	;# 
   470  0211                     	;# 
   471  0211                     	;# 
   472  0212                     	;# 
   473  0212                     	;# 
   474  0213                     	;# 
   475  0213                     	;# 
   476  0214                     	;# 
   477  0214                     	;# 
   478  0215                     	;# 
   479  0215                     	;# 
   480  0215                     	;# 
   481  0216                     	;# 
   482  0216                     	;# 
   483  0217                     	;# 
   484  0217                     	;# 
   485  0219                     	;# 
   486  021A                     	;# 
   487  021B                     	;# 
   488  021C                     	;# 
   489  021D                     	;# 
   490  021E                     	;# 
   491  021F                     	;# 
   492  0291                     	;# 
   493  0291                     	;# 
   494  0292                     	;# 
   495  0293                     	;# 
   496  0294                     	;# 
   497  0295                     	;# 
   498  0295                     	;# 
   499  0296                     	;# 
   500  0298                     	;# 
   501  0298                     	;# 
   502  0299                     	;# 
   503  029A                     	;# 
   504  029B                     	;# 
   505  029C                     	;# 
   506  029C                     	;# 
   507  029D                     	;# 
   508  029E                     	;# 
   509  029E                     	;# 
   510  0311                     	;# 
   511  0311                     	;# 
   512  0312                     	;# 
   513  0313                     	;# 
   514  0318                     	;# 
   515  0318                     	;# 
   516  0319                     	;# 
   517  031A                     	;# 
   518  0394                     	;# 
   519  0395                     	;# 
   520  0396                     	;# 
   521  039A                     	;# 
   522  039C                     	;# 
   523  039D                     	;# 
   524  039E                     	;# 
   525  039F                     	;# 
   526  0415                     	;# 
   527  0416                     	;# 
   528  0417                     	;# 
   529  041C                     	;# 
   530  041D                     	;# 
   531  041E                     	;# 
   532  0FE4                     	;# 
   533  0FE5                     	;# 
   534  0FE6                     	;# 
   535  0FE7                     	;# 
   536  0FE8                     	;# 
   537  0FE9                     	;# 
   538  0FEA                     	;# 
   539  0FEB                     	;# 
   540  0FED                     	;# 
   541  0FEE                     	;# 
   542  0FEF                     	;# 
   543  0000                     	;# 
   544  0001                     	;# 
   545  0002                     	;# 
   546  0003                     	;# 
   547  0004                     	;# 
   548  0005                     	;# 
   549  0006                     	;# 
   550  0007                     	;# 
   551  0008                     	;# 
   552  0009                     	;# 
   553  000A                     	;# 
   554  000B                     	;# 
   555  000C                     	;# 
   556  000D                     	;# 
   557  0011                     	;# 
   558  0012                     	;# 
   559  0013                     	;# 
   560  0014                     	;# 
   561  0015                     	;# 
   562  0016                     	;# 
   563  0016                     	;# 
   564  0017                     	;# 
   565  0018                     	;# 
   566  0019                     	;# 
   567  001A                     	;# 
   568  001B                     	;# 
   569  001C                     	;# 
   570  001E                     	;# 
   571  001F                     	;# 
   572  008C                     	;# 
   573  008D                     	;# 
   574  0091                     	;# 
   575  0092                     	;# 
   576  0093                     	;# 
   577  0094                     	;# 
   578  0095                     	;# 
   579  0096                     	;# 
   580  0097                     	;# 
   581  0098                     	;# 
   582  0099                     	;# 
   583  009A                     	;# 
   584  009B                     	;# 
   585  009B                     	;# 
   586  009C                     	;# 
   587  009D                     	;# 
   588  009E                     	;# 
   589  010C                     	;# 
   590  010D                     	;# 
   591  0111                     	;# 
   592  0112                     	;# 
   593  0113                     	;# 
   594  0114                     	;# 
   595  0115                     	;# 
   596  0116                     	;# 
   597  0117                     	;# 
   598  0118                     	;# 
   599  0119                     	;# 
   600  011A                     	;# 
   601  011B                     	;# 
   602  011D                     	;# 
   603  011E                     	;# 
   604  018C                     	;# 
   605  018D                     	;# 
   606  0191                     	;# 
   607  0191                     	;# 
   608  0192                     	;# 
   609  0193                     	;# 
   610  0193                     	;# 
   611  0193                     	;# 
   612  0194                     	;# 
   613  0195                     	;# 
   614  0196                     	;# 
   615  0199                     	;# 
   616  019A                     	;# 
   617  019B                     	;# 
   618  019B                     	;# 
   619  019B                     	;# 
   620  019B                     	;# 
   621  019C                     	;# 
   622  019C                     	;# 
   623  019D                     	;# 
   624  019E                     	;# 
   625  019F                     	;# 
   626  020C                     	;# 
   627  020D                     	;# 
   628  0211                     	;# 
   629  0211                     	;# 
   630  0212                     	;# 
   631  0212                     	;# 
   632  0213                     	;# 
   633  0213                     	;# 
   634  0214                     	;# 
   635  0214                     	;# 
   636  0215                     	;# 
   637  0215                     	;# 
   638  0215                     	;# 
   639  0216                     	;# 
   640  0216                     	;# 
   641  0217                     	;# 
   642  0217                     	;# 
   643  0219                     	;# 
   644  021A                     	;# 
   645  021B                     	;# 
   646  021C                     	;# 
   647  021D                     	;# 
   648  021E                     	;# 
   649  021F                     	;# 
   650  0291                     	;# 
   651  0291                     	;# 
   652  0292                     	;# 
   653  0293                     	;# 
   654  0294                     	;# 
   655  0295                     	;# 
   656  0295                     	;# 
   657  0296                     	;# 
   658  0298                     	;# 
   659  0298                     	;# 
   660  0299                     	;# 
   661  029A                     	;# 
   662  029B                     	;# 
   663  029C                     	;# 
   664  029C                     	;# 
   665  029D                     	;# 
   666  029E                     	;# 
   667  029E                     	;# 
   668  0311                     	;# 
   669  0311                     	;# 
   670  0312                     	;# 
   671  0313                     	;# 
   672  0318                     	;# 
   673  0318                     	;# 
   674  0319                     	;# 
   675  031A                     	;# 
   676  0394                     	;# 
   677  0395                     	;# 
   678  0396                     	;# 
   679  039A                     	;# 
   680  039C                     	;# 
   681  039D                     	;# 
   682  039E                     	;# 
   683  039F                     	;# 
   684  0415                     	;# 
   685  0416                     	;# 
   686  0417                     	;# 
   687  041C                     	;# 
   688  041D                     	;# 
   689  041E                     	;# 
   690  0FE4                     	;# 
   691  0FE5                     	;# 
   692  0FE6                     	;# 
   693  0FE7                     	;# 
   694  0FE8                     	;# 
   695  0FE9                     	;# 
   696  0FEA                     	;# 
   697  0FEB                     	;# 
   698  0FED                     	;# 
   699  0FEE                     	;# 
   700  0FEF                     	;# 
   701  0000                     	;# 
   702  0001                     	;# 
   703  0002                     	;# 
   704  0003                     	;# 
   705  0004                     	;# 
   706  0005                     	;# 
   707  0006                     	;# 
   708  0007                     	;# 
   709  0008                     	;# 
   710  0009                     	;# 
   711  000A                     	;# 
   712  000B                     	;# 
   713  000C                     	;# 
   714  000D                     	;# 
   715  0011                     	;# 
   716  0012                     	;# 
   717  0013                     	;# 
   718  0014                     	;# 
   719  0015                     	;# 
   720  0016                     	;# 
   721  0016                     	;# 
   722  0017                     	;# 
   723  0018                     	;# 
   724  0019                     	;# 
   725  001A                     	;# 
   726  001B                     	;# 
   727  001C                     	;# 
   728  001E                     	;# 
   729  001F                     	;# 
   730  008C                     	;# 
   731  008D                     	;# 
   732  0091                     	;# 
   733  0092                     	;# 
   734  0093                     	;# 
   735  0094                     	;# 
   736  0095                     	;# 
   737  0096                     	;# 
   738  0097                     	;# 
   739  0098                     	;# 
   740  0099                     	;# 
   741  009A                     	;# 
   742  009B                     	;# 
   743  009B                     	;# 
   744  009C                     	;# 
   745  009D                     	;# 
   746  009E                     	;# 
   747  010C                     	;# 
   748  010D                     	;# 
   749  0111                     	;# 
   750  0112                     	;# 
   751  0113                     	;# 
   752  0114                     	;# 
   753  0115                     	;# 
   754  0116                     	;# 
   755  0117                     	;# 
   756  0118                     	;# 
   757  0119                     	;# 
   758  011A                     	;# 
   759  011B                     	;# 
   760  011D                     	;# 
   761  011E                     	;# 
   762  018C                     	;# 
   763  018D                     	;# 
   764  0191                     	;# 
   765  0191                     	;# 
   766  0192                     	;# 
   767  0193                     	;# 
   768  0193                     	;# 
   769  0193                     	;# 
   770  0194                     	;# 
   771  0195                     	;# 
   772  0196                     	;# 
   773  0199                     	;# 
   774  019A                     	;# 
   775  019B                     	;# 
   776  019B                     	;# 
   777  019B                     	;# 
   778  019B                     	;# 
   779  019C                     	;# 
   780  019C                     	;# 
   781  019D                     	;# 
   782  019E                     	;# 
   783  019F                     	;# 
   784  020C                     	;# 
   785  020D                     	;# 
   786  0211                     	;# 
   787  0211                     	;# 
   788  0212                     	;# 
   789  0212                     	;# 
   790  0213                     	;# 
   791  0213                     	;# 
   792  0214                     	;# 
   793  0214                     	;# 
   794  0215                     	;# 
   795  0215                     	;# 
   796  0215                     	;# 
   797  0216                     	;# 
   798  0216                     	;# 
   799  0217                     	;# 
   800  0217                     	;# 
   801  0219                     	;# 
   802  021A                     	;# 
   803  021B                     	;# 
   804  021C                     	;# 
   805  021D                     	;# 
   806  021E                     	;# 
   807  021F                     	;# 
   808  0291                     	;# 
   809  0291                     	;# 
   810  0292                     	;# 
   811  0293                     	;# 
   812  0294                     	;# 
   813  0295                     	;# 
   814  0295                     	;# 
   815  0296                     	;# 
   816  0298                     	;# 
   817  0298                     	;# 
   818  0299                     	;# 
   819  029A                     	;# 
   820  029B                     	;# 
   821  029C                     	;# 
   822  029C                     	;# 
   823  029D                     	;# 
   824  029E                     	;# 
   825  029E                     	;# 
   826  0311                     	;# 
   827  0311                     	;# 
   828  0312                     	;# 
   829  0313                     	;# 
   830  0318                     	;# 
   831  0318                     	;# 
   832  0319                     	;# 
   833  031A                     	;# 
   834  0394                     	;# 
   835  0395                     	;# 
   836  0396                     	;# 
   837  039A                     	;# 
   838  039C                     	;# 
   839  039D                     	;# 
   840  039E                     	;# 
   841  039F                     	;# 
   842  0415                     	;# 
   843  0416                     	;# 
   844  0417                     	;# 
   845  041C                     	;# 
   846  041D                     	;# 
   847  041E                     	;# 
   848  0FE4                     	;# 
   849  0FE5                     	;# 
   850  0FE6                     	;# 
   851  0FE7                     	;# 
   852  0FE8                     	;# 
   853  0FE9                     	;# 
   854  0FEA                     	;# 
   855  0FEB                     	;# 
   856  0FED                     	;# 
   857  0FEE                     	;# 
   858  0FEF                     	;# 
   859  0000                     	;# 
   860  0001                     	;# 
   861  0002                     	;# 
   862  0003                     	;# 
   863  0004                     	;# 
   864  0005                     	;# 
   865  0006                     	;# 
   866  0007                     	;# 
   867  0008                     	;# 
   868  0009                     	;# 
   869  000A                     	;# 
   870  000B                     	;# 
   871  000C                     	;# 
   872  000D                     	;# 
   873  0011                     	;# 
   874  0012                     	;# 
   875  0013                     	;# 
   876  0014                     	;# 
   877  0015                     	;# 
   878  0016                     	;# 
   879  0016                     	;# 
   880  0017                     	;# 
   881  0018                     	;# 
   882  0019                     	;# 
   883  001A                     	;# 
   884  001B                     	;# 
   885  001C                     	;# 
   886  001E                     	;# 
   887  001F                     	;# 
   888  008C                     	;# 
   889  008D                     	;# 
   890  0091                     	;# 
   891  0092                     	;# 
   892  0093                     	;# 
   893  0094                     	;# 
   894  0095                     	;# 
   895  0096                     	;# 
   896  0097                     	;# 
   897  0098                     	;# 
   898  0099                     	;# 
   899  009A                     	;# 
   900  009B                     	;# 
   901  009B                     	;# 
   902  009C                     	;# 
   903  009D                     	;# 
   904  009E                     	;# 
   905  010C                     	;# 
   906  010D                     	;# 
   907  0111                     	;# 
   908  0112                     	;# 
   909  0113                     	;# 
   910  0114                     	;# 
   911  0115                     	;# 
   912  0116                     	;# 
   913  0117                     	;# 
   914  0118                     	;# 
   915  0119                     	;# 
   916  011A                     	;# 
   917  011B                     	;# 
   918  011D                     	;# 
   919  011E                     	;# 
   920  018C                     	;# 
   921  018D                     	;# 
   922  0191                     	;# 
   923  0191                     	;# 
   924  0192                     	;# 
   925  0193                     	;# 
   926  0193                     	;# 
   927  0193                     	;# 
   928  0194                     	;# 
   929  0195                     	;# 
   930  0196                     	;# 
   931  0199                     	;# 
   932  019A                     	;# 
   933  019B                     	;# 
   934  019B                     	;# 
   935  019B                     	;# 
   936  019B                     	;# 
   937  019C                     	;# 
   938  019C                     	;# 
   939  019D                     	;# 
   940  019E                     	;# 
   941  019F                     	;# 
   942  020C                     	;# 
   943  020D                     	;# 
   944  0211                     	;# 
   945  0211                     	;# 
   946  0212                     	;# 
   947  0212                     	;# 
   948  0213                     	;# 
   949  0213                     	;# 
   950  0214                     	;# 
   951  0214                     	;# 
   952  0215                     	;# 
   953  0215                     	;# 
   954  0215                     	;# 
   955  0216                     	;# 
   956  0216                     	;# 
   957  0217                     	;# 
   958  0217                     	;# 
   959  0219                     	;# 
   960  021A                     	;# 
   961  021B                     	;# 
   962  021C                     	;# 
   963  021D                     	;# 
   964  021E                     	;# 
   965  021F                     	;# 
   966  0291                     	;# 
   967  0291                     	;# 
   968  0292                     	;# 
   969  0293                     	;# 
   970  0294                     	;# 
   971  0295                     	;# 
   972  0295                     	;# 
   973  0296                     	;# 
   974  0298                     	;# 
   975  0298                     	;# 
   976  0299                     	;# 
   977  029A                     	;# 
   978  029B                     	;# 
   979  029C                     	;# 
   980  029C                     	;# 
   981  029D                     	;# 
   982  029E                     	;# 
   983  029E                     	;# 
   984  0311                     	;# 
   985  0311                     	;# 
   986  0312                     	;# 
   987  0313                     	;# 
   988  0318                     	;# 
   989  0318                     	;# 
   990  0319                     	;# 
   991  031A                     	;# 
   992  0394                     	;# 
   993  0395                     	;# 
   994  0396                     	;# 
   995  039A                     	;# 
   996  039C                     	;# 
   997  039D                     	;# 
   998  039E                     	;# 
   999  039F                     	;# 
  1000  0415                     	;# 
  1001  0416                     	;# 
  1002  0417                     	;# 
  1003  041C                     	;# 
  1004  041D                     	;# 
  1005  041E                     	;# 
  1006  0FE4                     	;# 
  1007  0FE5                     	;# 
  1008  0FE6                     	;# 
  1009  0FE7                     	;# 
  1010  0FE8                     	;# 
  1011  0FE9                     	;# 
  1012  0FEA                     	;# 
  1013  0FEB                     	;# 
  1014  0FED                     	;# 
  1015  0FEE                     	;# 
  1016  0FEF                     	;# 
  1017                           
  1018 ;; Function _EUSART_DefaultFramingErrorHandler is unused but had its address taken
  1019  0000                     
  1020 ;; Function _EUSART_DefaultOverrunErrorHandler is unused but had its address taken
  1021  0000                     
  1022 ;; Function _EUSART_DefaultErrorHandler is unused but had its address taken
  1023  0000                     
  1024                           	psect	stringtext1
  1025  0800                     __pstringtext1:
  1026  0800                     _dpowers:
  1027  0800  3401               	retlw	1
  1028  0801  3400               	retlw	0
  1029  0802  340A               	retlw	10
  1030  0803  3400               	retlw	0
  1031  0804  3464               	retlw	100
  1032  0805  3400               	retlw	0
  1033  0806  34E8               	retlw	232
  1034  0807  3403               	retlw	3
  1035  0808  3410               	retlw	16
  1036  0809  3427               	retlw	39
  1037  080A                     __end_of_dpowers:
  1038  000C                     _PORTAbits	set	12
  1039  0011                     _PIR1bits	set	17
  1040  0095                     _OPTION_REGbits	set	149
  1041  008D                     _TRISB	set	141
  1042  008C                     _TRISA	set	140
  1043  0097                     _WDTCON	set	151
  1044  0098                     _OSCTUNE	set	152
  1045  0099                     _OSCCON	set	153
  1046  04D6                     _PLLR	set	1238
  1047  010C                     _LATAbits	set	268
  1048  011E                     _APFCON1	set	286
  1049  011D                     _APFCON0	set	285
  1050  010D                     _LATB	set	269
  1051  010C                     _LATA	set	268
  1052  0116                     _BORCON	set	278
  1053  018C                     _ANSELA	set	396
  1054  018D                     _ANSELB	set	397
  1055  019A                     _TXREG	set	410
  1056  0199                     _RCREG	set	409
  1057  019D                     _RCSTAbits	set	413
  1058  019E                     _TXSTAbits	set	414
  1059  019C                     _SPBRGH	set	412
  1060  019B                     _SPBRGL	set	411
  1061  019E                     _TXSTA	set	414
  1062  019D                     _RCSTA	set	413
  1063  019F                     _BAUDCON	set	415
  1064  020C                     _WPUA	set	524
  1065  020D                     _WPUB	set	525
  1066  080A                     STR_4:
  1067  080A  345B               	retlw	91	;'['
  1068  080B  3425               	retlw	37	;'%'
  1069  080C  3464               	retlw	100	;'d'
  1070  080D  345D               	retlw	93	;']'
  1071  080E  342D               	retlw	45	;'-'
  1072  080F  342D               	retlw	45	;'-'
  1073  0810  342D               	retlw	45	;'-'
  1074  0811  342D               	retlw	45	;'-'
  1075  0812  342D               	retlw	45	;'-'
  1076  0813  342D               	retlw	45	;'-'
  1077  0814  342D               	retlw	45	;'-'
  1078  0815  342D               	retlw	45	;'-'
  1079  0816  342D               	retlw	45	;'-'
  1080  0817  342D               	retlw	45	;'-'
  1081  0818  342D               	retlw	45	;'-'
  1082  0819  342D               	retlw	45	;'-'
  1083  081A  342D               	retlw	45	;'-'
  1084  081B  342D               	retlw	45	;'-'
  1085  081C  342D               	retlw	45	;'-'
  1086  081D  342D               	retlw	45	;'-'
  1087  081E  342D               	retlw	45	;'-'
  1088  081F  342D               	retlw	45	;'-'
  1089  0820  342D               	retlw	45	;'-'
  1090  0821  342D               	retlw	45	;'-'
  1091  0822  342D               	retlw	45	;'-'
  1092  0823  342D               	retlw	45	;'-'
  1093  0824  342D               	retlw	45	;'-'
  1094  0825  342D               	retlw	45	;'-'
  1095  0826  342D               	retlw	45	;'-'
  1096  0827  342D               	retlw	45	;'-'
  1097  0828  340D               	retlw	13
  1098  0829  340A               	retlw	10
  1099  082A  3400               	retlw	0
  1100                           
  1101                           	psect	stringtext2
  1102  082B                     __pstringtext2:
  1103  082B                     STR_2:
  1104  082B  342D               	retlw	45	;'-'
  1105  082C  342D               	retlw	45	;'-'
  1106  082D  342D               	retlw	45	;'-'
  1107  082E  342D               	retlw	45	;'-'
  1108  082F  342D               	retlw	45	;'-'
  1109  0830  342D               	retlw	45	;'-'
  1110  0831  342D               	retlw	45	;'-'
  1111  0832  342D               	retlw	45	;'-'
  1112  0833  342D               	retlw	45	;'-'
  1113  0834  342D               	retlw	45	;'-'
  1114  0835  342D               	retlw	45	;'-'
  1115  0836  342D               	retlw	45	;'-'
  1116  0837  342D               	retlw	45	;'-'
  1117  0838  342D               	retlw	45	;'-'
  1118  0839  342D               	retlw	45	;'-'
  1119  083A  342D               	retlw	45	;'-'
  1120  083B  342D               	retlw	45	;'-'
  1121  083C  342D               	retlw	45	;'-'
  1122  083D  342D               	retlw	45	;'-'
  1123  083E  342D               	retlw	45	;'-'
  1124  083F  342D               	retlw	45	;'-'
  1125  0840  342D               	retlw	45	;'-'
  1126  0841  342D               	retlw	45	;'-'
  1127  0842  342D               	retlw	45	;'-'
  1128  0843  342D               	retlw	45	;'-'
  1129  0844  342D               	retlw	45	;'-'
  1130  0845  342D               	retlw	45	;'-'
  1131  0846  342D               	retlw	45	;'-'
  1132  0847  342D               	retlw	45	;'-'
  1133  0848  340D               	retlw	13
  1134  0849  340A               	retlw	10
  1135  084A  3400               	retlw	0
  1136                           
  1137                           	psect	stringtext3
  1138  084B                     __pstringtext3:
  1139  084B                     STR_1:
  1140  084B  3469               	retlw	105	;'i'
  1141  084C  346E               	retlw	110	;'n'
  1142  084D  3469               	retlw	105	;'i'
  1143  084E  3474               	retlw	116	;'t'
  1144  084F  3420               	retlw	32	;' '
  1145  0850  3441               	retlw	65	;'A'
  1146  0851  3445               	retlw	69	;'E'
  1147  0852  3448               	retlw	72	;'H'
  1148  0853  3441               	retlw	65	;'A'
  1149  0854  3420               	retlw	32	;' '
  1150  0855  3466               	retlw	102	;'f'
  1151  0856  346F               	retlw	111	;'o'
  1152  0857  3472               	retlw	114	;'r'
  1153  0858  346D               	retlw	109	;'m'
  1154  0859  3461               	retlw	97	;'a'
  1155  085A  3474               	retlw	116	;'t'
  1156  085B  340D               	retlw	13
  1157  085C  340A               	retlw	10
  1158  085D  3400               	retlw	0
  1159                           
  1160                           	psect	stringtext4
  1161  085E                     __pstringtext4:
  1162  085E                     STR_3:
  1163  085E  3465               	retlw	101	;'e'
  1164  085F  346E               	retlw	110	;'n'
  1165  0860  3464               	retlw	100	;'d'
  1166  0861  340D               	retlw	13
  1167  0862  340A               	retlw	10
  1168  0863  3400               	retlw	0
  1169                           
  1170                           	psect	stringtext5
  1171  0864                     __pstringtext5:
  1172  0864                     STR_5:
  1173  0864  347C               	retlw	124	;'|'
  1174  0865  347C               	retlw	124	;'|'
  1175  0866  3400               	retlw	0
  1176                           
  1177                           	psect	stringtext6
  1178  0000                     __pstringtext6:
  1179                           
  1180                           	psect	cinit
  1181  07F5                     start_initialization:	
  1182                           ; #config settings
  1183                           
  1184  07F5                     __initialization:
  1185                           
  1186                           ; Clear objects allocated to BANK0
  1187  07F5  0020               	movlb	0	; select bank0
  1188  07F6  01B5               	clrf	__pbssBANK0& (0+127)
  1189  07F7  01B6               	clrf	(__pbssBANK0+1)& (0+127)
  1190  07F8  01B7               	clrf	(__pbssBANK0+2)& (0+127)
  1191  07F9  01B8               	clrf	(__pbssBANK0+3)& (0+127)
  1192  07FA  01B9               	clrf	(__pbssBANK0+4)& (0+127)
  1193  07FB  01BA               	clrf	(__pbssBANK0+5)& (0+127)
  1194  07FC  01BB               	clrf	(__pbssBANK0+6)& (0+127)
  1195  07FD                     end_of_initialization:	
  1196                           ;End of C runtime variable initialization code
  1197                           
  1198  07FD                     __end_of__initialization:
  1199  07FD  0020               	movlb	0
  1200  07FE  3186  2EB5         	ljmp	_main	;jump to C main() function
  1201                           
  1202                           	psect	bssBANK0
  1203  0035                     __pbssBANK0:
  1204  0035                     _EUSART_ErrorHandler:
  1205  0035                     	ds	2
  1206  0037                     _EUSART_OverrunErrorHandler:
  1207  0037                     	ds	2
  1208  0039                     _EUSART_FramingErrorHandler:
  1209  0039                     	ds	2
  1210  003B                     _eusartRxLastError:
  1211  003B                     	ds	1
  1212                           
  1213                           	psect	cstackCOMMON
  1214  0070                     __pcstackCOMMON:
  1215  0070                     ?_EUSART_SetFramingErrorHandler:
  1216  0070                     ?_EUSART_SetOverrunErrorHandler:	
  1217                           ; 1 bytes @ 0x0
  1218                           
  1219  0070                     ?_EUSART_SetErrorHandler:	
  1220                           ; 1 bytes @ 0x0
  1221                           
  1222  0070                     ?_PIN_MANAGER_Initialize:	
  1223                           ; 1 bytes @ 0x0
  1224                           
  1225  0070                     ??_PIN_MANAGER_Initialize:	
  1226                           ; 1 bytes @ 0x0
  1227                           
  1228  0070                     ?_OSCILLATOR_Initialize:	
  1229                           ; 1 bytes @ 0x0
  1230                           
  1231  0070                     ??_OSCILLATOR_Initialize:	
  1232                           ; 1 bytes @ 0x0
  1233                           
  1234  0070                     ?_WDT_Initialize:	
  1235                           ; 1 bytes @ 0x0
  1236                           
  1237  0070                     ??_WDT_Initialize:	
  1238                           ; 1 bytes @ 0x0
  1239                           
  1240  0070                     ?_recv_daikin_reader:	
  1241                           ; 1 bytes @ 0x0
  1242                           
  1243  0070                     ?_recv_reader:	
  1244                           ; 1 bytes @ 0x0
  1245                           
  1246  0070                     ??_recv_reader:	
  1247                           ; 1 bytes @ 0x0
  1248                           
  1249  0070                     ?_recv_daikin_frame:	
  1250                           ; 1 bytes @ 0x0
  1251                           
  1252  0070                     ?_bit_find:	
  1253                           ; 1 bytes @ 0x0
  1254                           
  1255  0070                     ??_bit_find:	
  1256                           ; 1 bytes @ 0x0
  1257                           
  1258  0070                     ?_EUSART_Initialize:	
  1259                           ; 1 bytes @ 0x0
  1260                           
  1261  0070                     ?_EUSART_Write:	
  1262                           ; 1 bytes @ 0x0
  1263                           
  1264  0070                     ??_EUSART_Write:	
  1265                           ; 1 bytes @ 0x0
  1266                           
  1267  0070                     ?_SYSTEM_Initialize:	
  1268                           ; 1 bytes @ 0x0
  1269                           
  1270  0070                     ?_putch:	
  1271                           ; 1 bytes @ 0x0
  1272                           
  1273  0070                     ?_main:	
  1274                           ; 1 bytes @ 0x0
  1275                           
  1276  0070                     ?___lwdiv:	
  1277                           ; 1 bytes @ 0x0
  1278                           
  1279  0070                     EUSART_Write@txData:	
  1280                           ; 2 bytes @ 0x0
  1281                           
  1282  0070                     EUSART_SetFramingErrorHandler@interruptHandler:	
  1283                           ; 1 bytes @ 0x0
  1284                           
  1285  0070                     EUSART_SetOverrunErrorHandler@interruptHandler:	
  1286                           ; 2 bytes @ 0x0
  1287                           
  1288  0070                     EUSART_SetErrorHandler@interruptHandler:	
  1289                           ; 2 bytes @ 0x0
  1290                           
  1291  0070                     ___lwdiv@divisor:	
  1292                           ; 2 bytes @ 0x0
  1293                           
  1294                           
  1295                           ; 2 bytes @ 0x0
  1296  0070                     	ds	1
  1297  0071                     ??_putch:
  1298  0071                     putch@data:	
  1299                           ; 1 bytes @ 0x1
  1300                           
  1301  0071                     recv_reader@width:	
  1302                           ; 1 bytes @ 0x1
  1303                           
  1304  0071                     bit_find@width:	
  1305                           ; 2 bytes @ 0x1
  1306                           
  1307                           
  1308                           ; 2 bytes @ 0x1
  1309  0071                     	ds	1
  1310  0072                     ??_EUSART_SetFramingErrorHandler:
  1311  0072                     ??_EUSART_SetOverrunErrorHandler:	
  1312                           ; 1 bytes @ 0x2
  1313                           
  1314  0072                     ??_EUSART_SetErrorHandler:	
  1315                           ; 1 bytes @ 0x2
  1316                           
  1317  0072                     ??_EUSART_Initialize:	
  1318                           ; 1 bytes @ 0x2
  1319                           
  1320  0072                     ??_SYSTEM_Initialize:	
  1321                           ; 1 bytes @ 0x2
  1322                           
  1323  0072                     ___lwdiv@dividend:	
  1324                           ; 1 bytes @ 0x2
  1325                           
  1326                           
  1327                           ; 2 bytes @ 0x2
  1328  0072                     	ds	1
  1329  0073                     ??_recv_daikin_frame:
  1330                           
  1331                           ; 1 bytes @ 0x3
  1332  0073                     	ds	1
  1333  0074                     ??___lwdiv:
  1334  0074                     recv_daikin_frame@size:	
  1335                           ; 1 bytes @ 0x4
  1336                           
  1337                           
  1338                           ; 1 bytes @ 0x4
  1339  0074                     	ds	1
  1340  0075                     recv_daikin_frame@i:
  1341  0075                     ___lwdiv@quotient:	
  1342                           ; 1 bytes @ 0x5
  1343                           
  1344                           
  1345                           ; 2 bytes @ 0x5
  1346  0075                     	ds	1
  1347  0076                     recv_daikin_frame@a:
  1348                           
  1349                           ; 1 bytes @ 0x6
  1350  0076                     	ds	1
  1351  0077                     ___lwdiv@counter:
  1352                           
  1353                           ; 1 bytes @ 0x7
  1354  0077                     	ds	1
  1355  0078                     ?___lwmod:
  1356  0078                     ___lwmod@divisor:	
  1357                           ; 2 bytes @ 0x8
  1358                           
  1359                           
  1360                           ; 2 bytes @ 0x8
  1361  0078                     	ds	2
  1362  007A                     ___lwmod@dividend:
  1363                           
  1364                           ; 2 bytes @ 0xA
  1365  007A                     	ds	2
  1366  007C                     ??___lwmod:
  1367                           
  1368                           ; 1 bytes @ 0xC
  1369  007C                     	ds	1
  1370  007D                     ___lwmod@counter:
  1371                           
  1372                           ; 1 bytes @ 0xD
  1373  007D                     	ds	1
  1374                           
  1375                           	psect	cstackBANK0
  1376  0020                     __pcstackBANK0:
  1377  0020                     ?_printf:
  1378  0020                     printf@f:	
  1379                           ; 2 bytes @ 0x0
  1380                           
  1381                           
  1382                           ; 2 bytes @ 0x0
  1383  0020                     	ds	4
  1384  0024                     ??_printf:
  1385                           
  1386                           ; 1 bytes @ 0x4
  1387  0024                     	ds	4
  1388  0028                     printf@ap:
  1389                           
  1390                           ; 1 bytes @ 0x8
  1391  0028                     	ds	1
  1392  0029                     printf@flag:
  1393                           
  1394                           ; 1 bytes @ 0x9
  1395  0029                     	ds	1
  1396  002A                     printf@prec:
  1397                           
  1398                           ; 1 bytes @ 0xA
  1399  002A                     	ds	1
  1400  002B                     printf@val:
  1401                           
  1402                           ; 2 bytes @ 0xB
  1403  002B                     	ds	2
  1404  002D                     printf@c:
  1405                           
  1406                           ; 1 bytes @ 0xD
  1407  002D                     	ds	1
  1408  002E                     ??_recv_daikin_reader:
  1409                           
  1410                           ; 1 bytes @ 0xE
  1411  002E                     	ds	2
  1412  0030                     recv_daikin_reader@a:
  1413                           
  1414                           ; 1 bytes @ 0x10
  1415  0030                     	ds	1
  1416  0031                     recv_daikin_reader@i:
  1417                           
  1418                           ; 1 bytes @ 0x11
  1419  0031                     	ds	1
  1420  0032                     ??_main:
  1421                           
  1422                           ; 1 bytes @ 0x12
  1423  0032                     	ds	2
  1424  0034                     main@cnt:
  1425                           
  1426                           ; 1 bytes @ 0x14
  1427  0034                     	ds	1
  1428                           
  1429                           	psect	maintext
  1430  06B5                     __pmaintext:	
  1431 ;;
  1432 ;;Main: autosize = 0, tempsize = 2, incstack = 0, save=0
  1433 ;;
  1434 ;; *************** function _main *****************
  1435 ;; Defined at:
  1436 ;;		line 39 in file "main.c"
  1437 ;; Parameters:    Size  Location     Type
  1438 ;;		None
  1439 ;; Auto vars:     Size  Location     Type
  1440 ;;  cnt             1   20[BANK0 ] unsigned char 
  1441 ;; Return value:  Size  Location     Type
  1442 ;;                  1    wreg      void 
  1443 ;; Registers used:
  1444 ;;		wreg, fsr0l, fsr0h, fsr1l, fsr1h, status,2, status,0, pclath, cstack
  1445 ;; Tracked objects:
  1446 ;;		On entry : B1F/0
  1447 ;;		On exit  : 0/0
  1448 ;;		Unchanged: 0/0
  1449 ;; Data sizes:     COMMON   BANK0   BANK1   BANK2   BANK3   BANK4
  1450 ;;      Params:         0       0       0       0       0       0
  1451 ;;      Locals:         0       1       0       0       0       0
  1452 ;;      Temps:          0       2       0       0       0       0
  1453 ;;      Totals:         0       3       0       0       0       0
  1454 ;;Total ram usage:        3 bytes
  1455 ;; Hardware stack levels required when called:    4
  1456 ;; This function calls:
  1457 ;;		_SYSTEM_Initialize
  1458 ;;		_printf
  1459 ;;		_putch
  1460 ;;		_recv_daikin_frame
  1461 ;;		_recv_daikin_reader
  1462 ;;		_recv_reader
  1463 ;; This function is called by:
  1464 ;;		Startup code after reset
  1465 ;; This function uses a non-reentrant model
  1466 ;;
  1467                           
  1468                           
  1469                           ;psect for function _main
  1470  06B5                     _main:
  1471  06B5                     l1566:	
  1472                           ;incstack = 0
  1473                           ; Regs used in _main: [wreg-fsr1h+status,2+status,0+pclath+cstack]
  1474                           
  1475                           
  1476                           ;main.c: 41: SYSTEM_Initialize();
  1477  06B5  3185  252B  3186   	fcall	_SYSTEM_Initialize
  1478  06B8                     l1568:
  1479                           
  1480                           ;main.c: 42: printf("init AEHA format\r\n");
  1481  06B8  304B               	movlw	low (STR_1| (0+32768))
  1482  06B9  0020               	movlb	0	; select bank0
  1483  06BA  00A0               	movwf	printf@f
  1484  06BB  3088               	movlw	high (STR_1| (0+32768))
  1485  06BC  00A1               	movwf	printf@f+1
  1486  06BD  3187  2733  3186   	fcall	_printf
  1487  06C0                     l1570:
  1488                           
  1489                           ;main.c: 43: printf("-----------------------------\r\n");
  1490  06C0  302B               	movlw	low (STR_2| (0+32768))
  1491  06C1  0020               	movlb	0	; select bank0
  1492  06C2  00A0               	movwf	printf@f
  1493  06C3  3088               	movlw	high (STR_2| (0+32768))
  1494  06C4  00A1               	movwf	printf@f+1
  1495  06C5  3187  2733  3186   	fcall	_printf
  1496  06C8                     l1572:
  1497  06C8  0022               	movlb	2	; select bank2
  1498  06C9  150C               	bsf	12,2	;volatile
  1499  06CA                     l1574:
  1500                           
  1501                           ;main.c: 51: uint8_t cnt = 0;
  1502  06CA  0020               	movlb	0	; select bank0
  1503  06CB  01B4               	clrf	main@cnt
  1504  06CC  2ED1               	goto	l1578
  1505  06CD                     l1576:
  1506                           
  1507                           ;main.c: 63: _delay((unsigned long)((5)*(32000000/4000000.0)));
  1508  06CD  300D               	movlw	13
  1509  06CE                     u887:
  1510  06CE  0B89               	decfsz	9,f
  1511  06CF  2ECE               	goto	u887
  1512  06D0  0000               	nop
  1513  06D1                     l1578:
  1514  06D1  0020               	movlb	0	; select bank0
  1515  06D2  188C               	btfsc	12,1	;volatile
  1516  06D3  2ED5               	goto	u841
  1517  06D4  2ED6               	goto	u840
  1518  06D5                     u841:
  1519  06D5  2ECD               	goto	l1576
  1520  06D6                     u840:
  1521  06D6                     l1580:
  1522                           
  1523                           ;main.c: 64: };main.c: 66: recv_daikin_reader();
  1524  06D6  3185  2599  3186   	fcall	_recv_daikin_reader
  1525  06D9                     l1582:
  1526                           
  1527                           ;main.c: 68: recv_reader();
  1528  06D9  3186  2638  3186   	fcall	_recv_reader
  1529  06DC                     l1584:
  1530                           
  1531                           ;main.c: 69: recv_daikin_frame(64);
  1532  06DC  3040               	movlw	64
  1533  06DD  3185  2573  3186   	fcall	_recv_daikin_frame
  1534  06E0                     l1586:
  1535                           
  1536                           ;main.c: 70: putch('|');
  1537  06E0  307C               	movlw	124
  1538  06E1  3185  250F  3186   	fcall	_putch
  1539  06E4                     l1588:
  1540                           
  1541                           ;main.c: 72: _delay((unsigned long)((34)*(32000000/4000.0)));
  1542  06E4  3002               	movlw	2
  1543  06E5  0020               	movlb	0	; select bank0
  1544  06E6  00B3               	movwf	??_main+1
  1545  06E7  3062               	movlw	98
  1546  06E8  00B2               	movwf	??_main
  1547  06E9  303B               	movlw	59
  1548  06EA                     u897:
  1549  06EA  0B89               	decfsz	9,f
  1550  06EB  2EEA               	goto	u897
  1551  06EC  0BB2               	decfsz	??_main,f
  1552  06ED  2EEA               	goto	u897
  1553  06EE  0BB3               	decfsz	??_main+1,f
  1554  06EF  2EEA               	goto	u897
  1555  06F0  3200               	nop2
  1556  06F1                     l1590:
  1557                           
  1558                           ;main.c: 74: recv_reader();
  1559  06F1  3186  2638  3186   	fcall	_recv_reader
  1560  06F4                     l1592:
  1561                           
  1562                           ;main.c: 75: recv_daikin_frame(64);
  1563  06F4  3040               	movlw	64
  1564  06F5  3185  2573  3186   	fcall	_recv_daikin_frame
  1565  06F8                     l1594:
  1566                           
  1567                           ;main.c: 76: putch('|');
  1568  06F8  307C               	movlw	124
  1569  06F9  3185  250F  3186   	fcall	_putch
  1570  06FC                     l1596:
  1571                           
  1572                           ;main.c: 78: _delay((unsigned long)((34)*(32000000/4000.0)));
  1573  06FC  3002               	movlw	2
  1574  06FD  0020               	movlb	0	; select bank0
  1575  06FE  00B3               	movwf	??_main+1
  1576  06FF  3062               	movlw	98
  1577  0700  00B2               	movwf	??_main
  1578  0701  303B               	movlw	59
  1579  0702                     u907:
  1580  0702  0B89               	decfsz	9,f
  1581  0703  2F02               	goto	u907
  1582  0704  0BB2               	decfsz	??_main,f
  1583  0705  2F02               	goto	u907
  1584  0706  0BB3               	decfsz	??_main+1,f
  1585  0707  2F02               	goto	u907
  1586  0708  3200               	nop2
  1587  0709                     l1598:
  1588                           
  1589                           ;main.c: 80: recv_reader();
  1590  0709  3186  2638  3186   	fcall	_recv_reader
  1591  070C                     l1600:
  1592                           
  1593                           ;main.c: 81: recv_daikin_frame(160);
  1594  070C  30A0               	movlw	160
  1595  070D  3185  2573  3186   	fcall	_recv_daikin_frame
  1596  0710                     l1602:
  1597                           
  1598                           ;main.c: 82: putch('|');
  1599  0710  307C               	movlw	124
  1600  0711  3185  250F  3186   	fcall	_putch
  1601  0714                     l1604:
  1602                           
  1603                           ;main.c: 84: printf("end\r\n");
  1604  0714  305E               	movlw	low (STR_3| (0+32768))
  1605  0715  0020               	movlb	0	; select bank0
  1606  0716  00A0               	movwf	printf@f
  1607  0717  3088               	movlw	high (STR_3| (0+32768))
  1608  0718  00A1               	movwf	printf@f+1
  1609  0719  3187  2733  3186   	fcall	_printf
  1610  071C                     l1606:
  1611                           
  1612                           ;main.c: 85: printf("[%d]--------------------------\r\n", cnt);
  1613  071C  300A               	movlw	low (STR_4| (0+32768))
  1614  071D  0020               	movlb	0	; select bank0
  1615  071E  00A0               	movwf	printf@f
  1616  071F  3088               	movlw	high (STR_4| (0+32768))
  1617  0720  00A1               	movwf	printf@f+1
  1618  0721  0834               	movf	main@cnt,w
  1619  0722  00B2               	movwf	??_main
  1620  0723  01B3               	clrf	??_main+1
  1621  0724  0832               	movf	??_main,w
  1622  0725  00A2               	movwf	?_printf+2
  1623  0726  0833               	movf	??_main+1,w
  1624  0727  00A3               	movwf	?_printf+3
  1625  0728  3187  2733  3186   	fcall	_printf
  1626  072B                     l1608:
  1627                           
  1628                           ;main.c: 86: cnt++;
  1629  072B  3001               	movlw	1
  1630  072C  0020               	movlb	0	; select bank0
  1631  072D  00B2               	movwf	??_main
  1632  072E  0832               	movf	??_main,w
  1633  072F  07B4               	addwf	main@cnt,f
  1634  0730  2ED1               	goto	l1578
  1635  0731  3180  2802         	ljmp	start
  1636  0733                     __end_of_main:
  1637                           
  1638                           	psect	text1
  1639  0638                     __ptext1:	
  1640 ;; *************** function _recv_reader *****************
  1641 ;; Defined at:
  1642 ;;		line 108 in file "main.c"
  1643 ;; Parameters:    Size  Location     Type
  1644 ;;		None
  1645 ;; Auto vars:     Size  Location     Type
  1646 ;;  width           2    1[COMMON] int 
  1647 ;; Return value:  Size  Location     Type
  1648 ;;                  1    wreg      unsigned char 
  1649 ;; Registers used:
  1650 ;;		wreg, status,2
  1651 ;; Tracked objects:
  1652 ;;		On entry : 0/0
  1653 ;;		On exit  : 0/0
  1654 ;;		Unchanged: 0/0
  1655 ;; Data sizes:     COMMON   BANK0   BANK1   BANK2   BANK3   BANK4
  1656 ;;      Params:         0       0       0       0       0       0
  1657 ;;      Locals:         2       0       0       0       0       0
  1658 ;;      Temps:          1       0       0       0       0       0
  1659 ;;      Totals:         3       0       0       0       0       0
  1660 ;;Total ram usage:        3 bytes
  1661 ;; Hardware stack levels used:    1
  1662 ;; This function calls:
  1663 ;;		Nothing
  1664 ;; This function is called by:
  1665 ;;		_main
  1666 ;; This function uses a non-reentrant model
  1667 ;;
  1668                           
  1669                           
  1670                           ;psect for function _recv_reader
  1671  0638                     _recv_reader:
  1672  0638                     l1524:	
  1673                           ;incstack = 0
  1674                           ; Regs used in _recv_reader: [wreg+status,2]
  1675                           
  1676                           
  1677                           ;main.c: 109: int width = 0;
  1678  0638  01F1               	clrf	recv_reader@width
  1679  0639  01F2               	clrf	recv_reader@width+1
  1680                           
  1681                           ;main.c: 110: while(PORTAbits.RA1 == 0){
  1682  063A  2E43               	goto	l1528
  1683  063B                     l1526:
  1684                           
  1685                           ;main.c: 111: width++;
  1686  063B  3001               	movlw	1
  1687  063C  07F1               	addwf	recv_reader@width,f
  1688  063D  3000               	movlw	0
  1689  063E  3DF2               	addwfc	recv_reader@width+1,f
  1690                           
  1691                           ;main.c: 112: _delay((unsigned long)((5)*(32000000/4000000.0)));
  1692  063F  300D               	movlw	13
  1693  0640                     u917:
  1694  0640  0B89               	decfsz	9,f
  1695  0641  2E40               	goto	u917
  1696  0642  0000               	nop
  1697  0643                     l1528:
  1698  0643  0020               	movlb	0	; select bank0
  1699  0644  1C8C               	btfss	12,1	;volatile
  1700  0645  2E47               	goto	u751
  1701  0646  2E48               	goto	u750
  1702  0647                     u751:
  1703  0647  2E3B               	goto	l1526
  1704  0648                     u750:
  1705  0648                     l1530:
  1706                           
  1707                           ;main.c: 113: };main.c: 115: if(width > 800){
  1708  0648  0872               	movf	recv_reader@width+1,w
  1709  0649  3A80               	xorlw	128
  1710  064A  00F0               	movwf	??_recv_reader
  1711  064B  3083               	movlw	131
  1712  064C  0270               	subwf	??_recv_reader,w
  1713  064D  1D03               	skipz
  1714  064E  2E51               	goto	u765
  1715  064F  3021               	movlw	33
  1716  0650  0271               	subwf	recv_reader@width,w
  1717  0651                     u765:
  1718  0651  1C03               	skipc
  1719  0652  2E54               	goto	u761
  1720  0653  2E55               	goto	u760
  1721  0654                     u761:
  1722  0654  2E56               	goto	l1534
  1723  0655                     u760:
  1724  0655  2E74               	goto	l189
  1725  0656                     l1534:
  1726                           
  1727                           ;main.c: 117: };main.c: 119: width = 0;
  1728  0656  01F1               	clrf	recv_reader@width
  1729  0657  01F2               	clrf	recv_reader@width+1
  1730                           
  1731                           ;main.c: 120: while(PORTAbits.RA1 == 1){
  1732  0658  2E6F               	goto	l190
  1733  0659                     l1536:
  1734                           
  1735                           ;main.c: 121: width++;
  1736  0659  3001               	movlw	1
  1737  065A  07F1               	addwf	recv_reader@width,f
  1738  065B  3000               	movlw	0
  1739  065C  3DF2               	addwfc	recv_reader@width+1,f
  1740                           
  1741                           ;main.c: 122: _delay((unsigned long)((5)*(32000000/4000000.0)));
  1742  065D  300D               	movlw	13
  1743  065E                     u927:
  1744  065E  0B89               	decfsz	9,f
  1745  065F  2E5E               	goto	u927
  1746  0660  0000               	nop
  1747                           
  1748                           ;main.c: 124: if(width > 500){
  1749  0661  0872               	movf	recv_reader@width+1,w
  1750  0662  3A80               	xorlw	128
  1751  0663  00F0               	movwf	??_recv_reader
  1752  0664  3081               	movlw	129
  1753  0665  0270               	subwf	??_recv_reader,w
  1754  0666  1D03               	skipz
  1755  0667  2E6A               	goto	u775
  1756  0668  30F5               	movlw	245
  1757  0669  0271               	subwf	recv_reader@width,w
  1758  066A                     u775:
  1759  066A  1C03               	skipc
  1760  066B  2E6D               	goto	u771
  1761  066C  2E6E               	goto	u770
  1762  066D                     u771:
  1763  066D  2E6F               	goto	l190
  1764  066E                     u770:
  1765  066E  2E74               	goto	l189
  1766  066F                     l190:
  1767  066F  0020               	movlb	0	; select bank0
  1768  0670  188C               	btfsc	12,1	;volatile
  1769  0671  2E73               	goto	u781
  1770  0672  2E74               	goto	u780
  1771  0673                     u781:
  1772  0673  2E59               	goto	l1536
  1773  0674                     u780:
  1774  0674                     l189:
  1775  0674  0008               	return
  1776  0675                     __end_of_recv_reader:
  1777                           
  1778                           	psect	text2
  1779  0599                     __ptext2:	
  1780 ;; *************** function _recv_daikin_reader *****************
  1781 ;; Defined at:
  1782 ;;		line 146 in file "main.c"
  1783 ;; Parameters:    Size  Location     Type
  1784 ;;		None
  1785 ;; Auto vars:     Size  Location     Type
  1786 ;;  a               1   16[BANK0 ] unsigned char 
  1787 ;;  i               1   17[BANK0 ] unsigned char 
  1788 ;; Return value:  Size  Location     Type
  1789 ;;                  1    wreg      void 
  1790 ;; Registers used:
  1791 ;;		wreg, fsr0l, fsr0h, fsr1l, fsr1h, status,2, status,0, pclath, cstack
  1792 ;; Tracked objects:
  1793 ;;		On entry : 0/0
  1794 ;;		On exit  : 0/0
  1795 ;;		Unchanged: 0/0
  1796 ;; Data sizes:     COMMON   BANK0   BANK1   BANK2   BANK3   BANK4
  1797 ;;      Params:         0       0       0       0       0       0
  1798 ;;      Locals:         0       2       0       0       0       0
  1799 ;;      Temps:          0       2       0       0       0       0
  1800 ;;      Totals:         0       4       0       0       0       0
  1801 ;;Total ram usage:        4 bytes
  1802 ;; Hardware stack levels used:    1
  1803 ;; Hardware stack levels required when called:    3
  1804 ;; This function calls:
  1805 ;;		_bit_find
  1806 ;;		_printf
  1807 ;;		_putch
  1808 ;; This function is called by:
  1809 ;;		_main
  1810 ;; This function uses a non-reentrant model
  1811 ;;
  1812                           
  1813                           
  1814                           ;psect for function _recv_daikin_reader
  1815  0599                     _recv_daikin_reader:
  1816  0599                     l1506:	
  1817                           ;incstack = 0
  1818                           ; Regs used in _recv_daikin_reader: [wreg-fsr1h+status,2+status,0+pclath+cstack]
  1819                           
  1820                           
  1821                           ;main.c: 147: uint8_t i;;main.c: 148: for(i = 0; i < 5; i++){
  1822  0599  0020               	movlb	0	; select bank0
  1823  059A  01B1               	clrf	recv_daikin_reader@i
  1824  059B                     l1512:
  1825                           
  1826                           ;main.c: 149: uint8_t a = bit_find();
  1827  059B  3186  2675  3185   	fcall	_bit_find
  1828  059E  0020               	movlb	0	; select bank0
  1829  059F  00AE               	movwf	??_recv_daikin_reader
  1830  05A0  082E               	movf	??_recv_daikin_reader,w
  1831  05A1  00B0               	movwf	recv_daikin_reader@a
  1832  05A2                     l1514:
  1833                           
  1834                           ;main.c: 150: putch(a + '0');
  1835  05A2  0830               	movf	recv_daikin_reader@a,w
  1836  05A3  3E30               	addlw	48
  1837  05A4  3185  250F  3185   	fcall	_putch
  1838  05A7                     l1516:
  1839  05A7  3001               	movlw	1
  1840  05A8  0020               	movlb	0	; select bank0
  1841  05A9  00AE               	movwf	??_recv_daikin_reader
  1842  05AA  082E               	movf	??_recv_daikin_reader,w
  1843  05AB  07B1               	addwf	recv_daikin_reader@i,f
  1844  05AC                     l1518:
  1845  05AC  3005               	movlw	5
  1846  05AD  0231               	subwf	recv_daikin_reader@i,w
  1847  05AE  1C03               	skipc
  1848  05AF  2DB1               	goto	u741
  1849  05B0  2DB2               	goto	u740
  1850  05B1                     u741:
  1851  05B1  2D9B               	goto	l1512
  1852  05B2                     u740:
  1853  05B2                     l1520:
  1854                           
  1855                           ;main.c: 151: };main.c: 153: _delay((unsigned long)((25)*(32000000/4000.0)));
  1856  05B2  3002               	movlw	2
  1857  05B3  0020               	movlb	0	; select bank0
  1858  05B4  00AF               	movwf	??_recv_daikin_reader+1
  1859  05B5  3004               	movlw	4
  1860  05B6  00AE               	movwf	??_recv_daikin_reader
  1861  05B7  30BA               	movlw	186
  1862  05B8                     u937:
  1863  05B8  0B89               	decfsz	9,f
  1864  05B9  2DB8               	goto	u937
  1865  05BA  0BAE               	decfsz	??_recv_daikin_reader,f
  1866  05BB  2DB8               	goto	u937
  1867  05BC  0BAF               	decfsz	??_recv_daikin_reader+1,f
  1868  05BD  2DB8               	goto	u937
  1869  05BE  0000               	nop
  1870  05BF                     l1522:
  1871                           
  1872                           ;main.c: 154: printf("||");
  1873  05BF  3064               	movlw	low (STR_5| (0+32768))
  1874  05C0  0020               	movlb	0	; select bank0
  1875  05C1  00A0               	movwf	printf@f
  1876  05C2  3088               	movlw	high (STR_5| (0+32768))
  1877  05C3  00A1               	movwf	printf@f+1
  1878  05C4  3187  2733  3185   	fcall	_printf
  1879  05C7                     l207:
  1880  05C7  0008               	return
  1881  05C8                     __end_of_recv_daikin_reader:
  1882                           
  1883                           	psect	text3
  1884  0733                     __ptext3:	
  1885 ;; *************** function _printf *****************
  1886 ;; Defined at:
  1887 ;;		line 477 in file "C:\Program Files\Microchip\xc8\v2.20\pic\sources\c90\common\doprnt.c"
  1888 ;; Parameters:    Size  Location     Type
  1889 ;;  f               2    0[BANK0 ] PTR const unsigned char 
  1890 ;;		 -> STR_5(3), STR_4(33), STR_3(6), STR_2(32), 
  1891 ;;		 -> STR_1(19), 
  1892 ;; Auto vars:     Size  Location     Type
  1893 ;;  tmpval          4    0        struct .
  1894 ;;  val             2   11[BANK0 ] unsigned int 
  1895 ;;  cp              2    0        PTR const unsigned char 
  1896 ;;  len             2    0        unsigned int 
  1897 ;;  c               1   13[BANK0 ] unsigned char 
  1898 ;;  prec            1   10[BANK0 ] char 
  1899 ;;  flag            1    9[BANK0 ] unsigned char 
  1900 ;;  ap              1    8[BANK0 ] PTR void [1]
  1901 ;;		 -> ?_printf(2), 
  1902 ;; Return value:  Size  Location     Type
  1903 ;;                  2    0[BANK0 ] int 
  1904 ;; Registers used:
  1905 ;;		wreg, fsr0l, fsr0h, fsr1l, fsr1h, status,2, status,0, pclath, cstack
  1906 ;; Tracked objects:
  1907 ;;		On entry : 0/0
  1908 ;;		On exit  : 0/0
  1909 ;;		Unchanged: 0/0
  1910 ;; Data sizes:     COMMON   BANK0   BANK1   BANK2   BANK3   BANK4
  1911 ;;      Params:         0       4       0       0       0       0
  1912 ;;      Locals:         0       6       0       0       0       0
  1913 ;;      Temps:          0       4       0       0       0       0
  1914 ;;      Totals:         0      14       0       0       0       0
  1915 ;;Total ram usage:       14 bytes
  1916 ;; Hardware stack levels used:    1
  1917 ;; Hardware stack levels required when called:    2
  1918 ;; This function calls:
  1919 ;;		___lwdiv
  1920 ;;		___lwmod
  1921 ;;		_putch
  1922 ;; This function is called by:
  1923 ;;		_main
  1924 ;;		_recv_daikin_reader
  1925 ;; This function uses a non-reentrant model
  1926 ;;
  1927                           
  1928                           
  1929                           ;psect for function _printf
  1930  0733                     _printf:
  1931  0733                     l1430:	
  1932                           ;incstack = 0
  1933                           ; Regs used in _printf: [wreg-fsr1h+status,2+status,0+pclath+cstack]
  1934                           
  1935                           
  1936                           ;doprnt.c: 479: va_list ap;;doprnt.c: 512: char c;;doprnt.c: 521: signed char prec;;dopr
      +                          nt.c: 525: unsigned char flag;;doprnt.c: 540: union {;doprnt.c: 541: unsigned long vd;;d
      +                          oprnt.c: 542: double integ;;doprnt.c: 543: } tmpval;;doprnt.c: 545: unsigned int val;;do
      +                          prnt.c: 546: unsigned len;;doprnt.c: 547: const char * cp;;doprnt.c: 550: *ap = __va_sta
      +                          rt();
  1937  0733  3022               	movlw	(low ((?_printf| 0+2)))& (0+255)
  1938  0734  0020               	movlb	0	; select bank0
  1939  0735  00A4               	movwf	??_printf
  1940  0736  0824               	movf	??_printf,w
  1941  0737  00A8               	movwf	printf@ap
  1942                           
  1943                           ;doprnt.c: 553: while((c = *f++)) {
  1944  0738  2FDF               	goto	l1476
  1945  0739                     l1432:
  1946                           
  1947                           ;doprnt.c: 555: if(c != '%')
  1948  0739  3025               	movlw	37
  1949  073A  062D               	xorwf	printf@c,w
  1950  073B  1903               	btfsc	3,2
  1951  073C  2F3E               	goto	u631
  1952  073D  2F3F               	goto	u630
  1953  073E                     u631:
  1954  073E  2F44               	goto	l1436
  1955  073F                     u630:
  1956  073F                     l1434:
  1957                           
  1958                           ;doprnt.c: 557: {;doprnt.c: 558: (putch(c) );
  1959  073F  082D               	movf	printf@c,w
  1960  0740  3185  250F  3187   	fcall	_putch
  1961                           
  1962                           ;doprnt.c: 559: continue;
  1963  0743  2FDF               	goto	l1476
  1964  0744                     l1436:
  1965                           
  1966                           ;doprnt.c: 560: };doprnt.c: 565: flag = 0;
  1967  0744  01A9               	clrf	printf@flag
  1968  0745                     l1440:	
  1969                           ;doprnt.c: 661: switch(c = *f++) {
  1970                           
  1971  0745  0821               	movf	printf@f+1,w
  1972  0746  00A5               	movwf	??_printf+1
  1973  0747  0820               	movf	printf@f,w
  1974  0748  00A4               	movwf	??_printf
  1975  0749  0AA0               	incf	printf@f,f
  1976  074A  1903               	skipnz
  1977  074B  0AA1               	incf	printf@f+1,f
  1978  074C  0824               	movf	??_printf,w
  1979  074D  0084               	movwf	4
  1980  074E  0825               	movf	??_printf+1,w
  1981  074F  0085               	movwf	5
  1982  0750  0800               	movf	0,w	;code access
  1983  0751  00AD               	movwf	printf@c
  1984                           
  1985                           ; Switch size 1, requested type "simple"
  1986                           ; Number of cases is 3, Range of values is 0 to 105
  1987                           ; switch strategies available:
  1988                           ; Name         Instructions Cycles
  1989                           ; simple_byte           10     6 (average)
  1990                           ; direct_byte          218     6 (fixed)
  1991                           ; jumptable            260     6 (fixed)
  1992                           ;	Chosen strategy is simple_byte
  1993  0752  3A00               	xorlw	0	; case 0
  1994  0753  1903               	skipnz
  1995  0754  2FF4               	goto	l456
  1996  0755  3A64               	xorlw	100	; case 100
  1997  0756  1903               	skipnz
  1998  0757  2F5C               	goto	l1442
  1999  0758  3A0D               	xorlw	13	; case 105
  2000  0759  1903               	skipnz
  2001  075A  2F5C               	goto	l1442
  2002  075B  2FDF               	goto	l1476
  2003  075C                     l1442:
  2004                           
  2005                           ;doprnt.c: 1279: {;doprnt.c: 1285: val = (unsigned int)(*(int *)__va_arg((*(int **)ap), 
      +                          (int)0));
  2006  075C  0828               	movf	printf@ap,w
  2007  075D  0086               	movwf	6
  2008  075E  0187               	clrf	7
  2009  075F  3F40               	moviw [0]fsr1
  2010  0760  00AB               	movwf	printf@val
  2011  0761  3F41               	moviw [1]fsr1
  2012  0762  00AC               	movwf	printf@val+1
  2013  0763                     l1444:
  2014  0763  3002               	movlw	2
  2015  0764  00A4               	movwf	??_printf
  2016  0765  0824               	movf	??_printf,w
  2017  0766  07A8               	addwf	printf@ap,f
  2018  0767                     l1446:
  2019                           
  2020                           ;doprnt.c: 1287: if((int)val < 0) {
  2021  0767  1FAC               	btfss	printf@val+1,7
  2022  0768  2F6A               	goto	u641
  2023  0769  2F6B               	goto	u640
  2024  076A                     u641:
  2025  076A  2F74               	goto	l1452
  2026  076B                     u640:
  2027  076B                     l1448:
  2028                           
  2029                           ;doprnt.c: 1288: flag |= 0x03;
  2030  076B  3003               	movlw	3
  2031  076C  00A4               	movwf	??_printf
  2032  076D  0824               	movf	??_printf,w
  2033  076E  04A9               	iorwf	printf@flag,f
  2034  076F                     l1450:
  2035                           
  2036                           ;doprnt.c: 1289: val = -val;
  2037  076F  09AB               	comf	printf@val,f
  2038  0770  09AC               	comf	printf@val+1,f
  2039  0771  0AAB               	incf	printf@val,f
  2040  0772  1903               	skipnz
  2041  0773  0AAC               	incf	printf@val+1,f
  2042  0774                     l1452:
  2043                           
  2044                           ;doprnt.c: 1290: };doprnt.c: 1292: };doprnt.c: 1331: for(c = 1 ; c != sizeof dpowers/siz
      +                          eof dpowers[0] ; c++)
  2045  0774  01AD               	clrf	printf@c
  2046  0775  0AAD               	incf	printf@c,f
  2047  0776                     l1458:
  2048                           
  2049                           ;doprnt.c: 1332: if(val < dpowers[c])
  2050  0776  082D               	movf	printf@c,w
  2051  0777  00A4               	movwf	??_printf
  2052  0778  01A5               	clrf	??_printf+1
  2053  0779  35A4               	lslf	??_printf,f
  2054  077A  0DA5               	rlf	??_printf+1,f
  2055  077B  3000               	movlw	low (_dpowers| (0+32768))
  2056  077C  0724               	addwf	??_printf,w
  2057  077D  0084               	movwf	4
  2058  077E  3088               	movlw	high (_dpowers| (0+32768))
  2059  077F  3D25               	addwfc	??_printf+1,w
  2060  0780  0085               	movwf	5
  2061  0781  3F00               	moviw [0]fsr0
  2062  0782  00A6               	movwf	??_printf+2
  2063  0783  3F01               	moviw [1]fsr0
  2064  0784  00A7               	movwf	??_printf+3
  2065  0785  0827               	movf	??_printf+3,w
  2066  0786  022C               	subwf	printf@val+1,w
  2067  0787  1D03               	skipz
  2068  0788  2F8B               	goto	u655
  2069  0789  0826               	movf	??_printf+2,w
  2070  078A  022B               	subwf	printf@val,w
  2071  078B                     u655:
  2072  078B  1803               	skipnc
  2073  078C  2F8E               	goto	u651
  2074  078D  2F8F               	goto	u650
  2075  078E                     u651:
  2076  078E  2F90               	goto	l1462
  2077  078F                     u650:
  2078  078F  2F9A               	goto	l1464
  2079  0790                     l1462:
  2080  0790  3001               	movlw	1
  2081  0791  00A4               	movwf	??_printf
  2082  0792  0824               	movf	??_printf,w
  2083  0793  07AD               	addwf	printf@c,f
  2084  0794  3005               	movlw	5
  2085  0795  062D               	xorwf	printf@c,w
  2086  0796  1D03               	btfss	3,2
  2087  0797  2F99               	goto	u661
  2088  0798  2F9A               	goto	u660
  2089  0799                     u661:
  2090  0799  2F76               	goto	l1458
  2091  079A                     u660:
  2092  079A                     l1464:
  2093                           
  2094                           ;doprnt.c: 1448: {;doprnt.c: 1464: if(flag & 0x03)
  2095  079A  0829               	movf	printf@flag,w
  2096  079B  3903               	andlw	3
  2097  079C  1903               	btfsc	3,2
  2098  079D  2F9F               	goto	u671
  2099  079E  2FA0               	goto	u670
  2100  079F                     u671:
  2101  079F  2FA4               	goto	l1468
  2102  07A0                     u670:
  2103  07A0                     l1466:
  2104                           
  2105                           ;doprnt.c: 1465: (putch('-') );
  2106  07A0  302D               	movlw	45
  2107  07A1  3185  250F  3187   	fcall	_putch
  2108  07A4                     l1468:
  2109                           
  2110                           ;doprnt.c: 1495: };doprnt.c: 1498: prec = c;
  2111  07A4  0020               	movlb	0	; select bank0
  2112  07A5  082D               	movf	printf@c,w
  2113  07A6  00A4               	movwf	??_printf
  2114  07A7  0824               	movf	??_printf,w
  2115  07A8  00AA               	movwf	printf@prec
  2116                           
  2117                           ;doprnt.c: 1500: while(prec--) {
  2118  07A9  2FD5               	goto	l1474
  2119  07AA                     l1470:
  2120                           
  2121                           ;doprnt.c: 1504: {;doprnt.c: 1515: c = (val / dpowers[(unsigned char)prec]) % 10 + '0';
  2122  07AA  300A               	movlw	10
  2123  07AB  00F8               	movwf	___lwmod@divisor
  2124  07AC  3000               	movlw	0
  2125  07AD  00F9               	movwf	___lwmod@divisor+1
  2126  07AE  082A               	movf	printf@prec,w
  2127  07AF  00A4               	movwf	??_printf
  2128  07B0  01A5               	clrf	??_printf+1
  2129  07B1  35A4               	lslf	??_printf,f
  2130  07B2  0DA5               	rlf	??_printf+1,f
  2131  07B3  3000               	movlw	low (_dpowers| (0+32768))
  2132  07B4  0724               	addwf	??_printf,w
  2133  07B5  0084               	movwf	4
  2134  07B6  3088               	movlw	high (_dpowers| (0+32768))
  2135  07B7  3D25               	addwfc	??_printf+1,w
  2136  07B8  0085               	movwf	5
  2137  07B9  3F00               	moviw [0]fsr0
  2138  07BA  00F0               	movwf	___lwdiv@divisor
  2139  07BB  3F01               	moviw [1]fsr0
  2140  07BC  00F1               	movwf	___lwdiv@divisor+1
  2141  07BD  082C               	movf	printf@val+1,w
  2142  07BE  00F3               	movwf	___lwdiv@dividend+1
  2143  07BF  082B               	movf	printf@val,w
  2144  07C0  00F2               	movwf	___lwdiv@dividend
  2145  07C1  3185  25FC  3187   	fcall	___lwdiv
  2146  07C4  0871               	movf	?___lwdiv+1,w
  2147  07C5  00FB               	movwf	___lwmod@dividend+1
  2148  07C6  0870               	movf	?___lwdiv,w
  2149  07C7  00FA               	movwf	___lwmod@dividend
  2150  07C8  3185  25C8  3187   	fcall	___lwmod
  2151  07CB  0878               	movf	?___lwmod,w
  2152  07CC  3E30               	addlw	48
  2153  07CD  0020               	movlb	0	; select bank0
  2154  07CE  00A6               	movwf	??_printf+2
  2155  07CF  0826               	movf	??_printf+2,w
  2156  07D0  00AD               	movwf	printf@c
  2157  07D1                     l1472:
  2158                           
  2159                           ;doprnt.c: 1549: };doprnt.c: 1550: (putch(c) );
  2160  07D1  082D               	movf	printf@c,w
  2161  07D2  3185  250F  3187   	fcall	_putch
  2162  07D5                     l1474:
  2163  07D5  30FF               	movlw	255
  2164  07D6  0020               	movlb	0	; select bank0
  2165  07D7  00A4               	movwf	??_printf
  2166  07D8  0824               	movf	??_printf,w
  2167  07D9  07AA               	addwf	printf@prec,f
  2168  07DA  0A2A               	incf	printf@prec,w
  2169  07DB  1D03               	btfss	3,2
  2170  07DC  2FDE               	goto	u681
  2171  07DD  2FDF               	goto	u680
  2172  07DE                     u681:
  2173  07DE  2FAA               	goto	l1470
  2174  07DF                     u680:
  2175  07DF                     l1476:
  2176  07DF  0020               	movlb	0	; select bank0
  2177  07E0  0821               	movf	printf@f+1,w
  2178  07E1  00A5               	movwf	??_printf+1
  2179  07E2  0820               	movf	printf@f,w
  2180  07E3  00A4               	movwf	??_printf
  2181  07E4  0AA0               	incf	printf@f,f
  2182  07E5  1903               	skipnz
  2183  07E6  0AA1               	incf	printf@f+1,f
  2184  07E7  0824               	movf	??_printf,w
  2185  07E8  0084               	movwf	4
  2186  07E9  0825               	movf	??_printf+1,w
  2187  07EA  0085               	movwf	5
  2188  07EB  0800               	movf	0,w	;code access
  2189  07EC  00A6               	movwf	??_printf+2
  2190  07ED  0826               	movf	??_printf+2,w
  2191  07EE  00AD               	movwf	printf@c
  2192  07EF  082D               	movf	printf@c,w
  2193  07F0  1D03               	btfss	3,2
  2194  07F1  2FF3               	goto	u691
  2195  07F2  2FF4               	goto	u690
  2196  07F3                     u691:
  2197  07F3  2F39               	goto	l1432
  2198  07F4                     u690:
  2199  07F4                     l456:
  2200  07F4  0008               	return
  2201  07F5                     __end_of_printf:
  2202                           
  2203                           	psect	text4
  2204  05C8                     __ptext4:	
  2205 ;; *************** function ___lwmod *****************
  2206 ;; Defined at:
  2207 ;;		line 5 in file "C:\Program Files\Microchip\xc8\v2.20\pic\sources\c90\common\lwmod.c"
  2208 ;; Parameters:    Size  Location     Type
  2209 ;;  divisor         2    8[COMMON] unsigned int 
  2210 ;;  dividend        2   10[COMMON] unsigned int 
  2211 ;; Auto vars:     Size  Location     Type
  2212 ;;  counter         1   13[COMMON] unsigned char 
  2213 ;; Return value:  Size  Location     Type
  2214 ;;                  2    8[COMMON] unsigned int 
  2215 ;; Registers used:
  2216 ;;		wreg, status,2, status,0
  2217 ;; Tracked objects:
  2218 ;;		On entry : 0/0
  2219 ;;		On exit  : 0/0
  2220 ;;		Unchanged: 0/0
  2221 ;; Data sizes:     COMMON   BANK0   BANK1   BANK2   BANK3   BANK4
  2222 ;;      Params:         4       0       0       0       0       0
  2223 ;;      Locals:         1       0       0       0       0       0
  2224 ;;      Temps:          1       0       0       0       0       0
  2225 ;;      Totals:         6       0       0       0       0       0
  2226 ;;Total ram usage:        6 bytes
  2227 ;; Hardware stack levels used:    1
  2228 ;; This function calls:
  2229 ;;		Nothing
  2230 ;; This function is called by:
  2231 ;;		_printf
  2232 ;; This function uses a non-reentrant model
  2233 ;;
  2234                           
  2235                           
  2236                           ;psect for function ___lwmod
  2237  05C8                     ___lwmod:
  2238  05C8                     l1374:	
  2239                           ;incstack = 0
  2240                           ; Regs used in ___lwmod: [wreg+status,2+status,0]
  2241                           
  2242  05C8  0878               	movf	___lwmod@divisor,w
  2243  05C9  0479               	iorwf	___lwmod@divisor+1,w
  2244  05CA  1903               	btfsc	3,2
  2245  05CB  2DCD               	goto	u561
  2246  05CC  2DCE               	goto	u560
  2247  05CD                     u561:
  2248  05CD  2DF7               	goto	l1392
  2249  05CE                     u560:
  2250  05CE                     l1376:
  2251  05CE  01FD               	clrf	___lwmod@counter
  2252  05CF  0AFD               	incf	___lwmod@counter,f
  2253  05D0  2DDA               	goto	l1382
  2254  05D1                     l1378:
  2255  05D1  3001               	movlw	1
  2256  05D2                     u575:
  2257  05D2  35F8               	lslf	___lwmod@divisor,f
  2258  05D3  0DF9               	rlf	___lwmod@divisor+1,f
  2259  05D4  0B89               	decfsz	9,f
  2260  05D5  2DD2               	goto	u575
  2261  05D6                     l1380:
  2262  05D6  3001               	movlw	1
  2263  05D7  00FC               	movwf	??___lwmod
  2264  05D8  087C               	movf	??___lwmod,w
  2265  05D9  07FD               	addwf	___lwmod@counter,f
  2266  05DA                     l1382:
  2267  05DA  1FF9               	btfss	___lwmod@divisor+1,7
  2268  05DB  2DDD               	goto	u581
  2269  05DC  2DDE               	goto	u580
  2270  05DD                     u581:
  2271  05DD  2DD1               	goto	l1378
  2272  05DE                     u580:
  2273  05DE                     l1384:
  2274  05DE  0879               	movf	___lwmod@divisor+1,w
  2275  05DF  027B               	subwf	___lwmod@dividend+1,w
  2276  05E0  1D03               	skipz
  2277  05E1  2DE4               	goto	u595
  2278  05E2  0878               	movf	___lwmod@divisor,w
  2279  05E3  027A               	subwf	___lwmod@dividend,w
  2280  05E4                     u595:
  2281  05E4  1C03               	skipc
  2282  05E5  2DE7               	goto	u591
  2283  05E6  2DE8               	goto	u590
  2284  05E7                     u591:
  2285  05E7  2DEC               	goto	l1388
  2286  05E8                     u590:
  2287  05E8                     l1386:
  2288  05E8  0878               	movf	___lwmod@divisor,w
  2289  05E9  02FA               	subwf	___lwmod@dividend,f
  2290  05EA  0879               	movf	___lwmod@divisor+1,w
  2291  05EB  3BFB               	subwfb	___lwmod@dividend+1,f
  2292  05EC                     l1388:
  2293  05EC  3001               	movlw	1
  2294  05ED                     u605:
  2295  05ED  36F9               	lsrf	___lwmod@divisor+1,f
  2296  05EE  0CF8               	rrf	___lwmod@divisor,f
  2297  05EF  0B89               	decfsz	9,f
  2298  05F0  2DED               	goto	u605
  2299  05F1                     l1390:
  2300  05F1  3001               	movlw	1
  2301  05F2  02FD               	subwf	___lwmod@counter,f
  2302  05F3  1D03               	btfss	3,2
  2303  05F4  2DF6               	goto	u611
  2304  05F5  2DF7               	goto	u610
  2305  05F6                     u611:
  2306  05F6  2DDE               	goto	l1384
  2307  05F7                     u610:
  2308  05F7                     l1392:
  2309  05F7  087B               	movf	___lwmod@dividend+1,w
  2310  05F8  00F9               	movwf	?___lwmod+1
  2311  05F9  087A               	movf	___lwmod@dividend,w
  2312  05FA  00F8               	movwf	?___lwmod
  2313  05FB                     l742:
  2314  05FB  0008               	return
  2315  05FC                     __end_of___lwmod:
  2316                           
  2317                           	psect	text5
  2318  05FC                     __ptext5:	
  2319 ;; *************** function ___lwdiv *****************
  2320 ;; Defined at:
  2321 ;;		line 5 in file "C:\Program Files\Microchip\xc8\v2.20\pic\sources\c90\common\lwdiv.c"
  2322 ;; Parameters:    Size  Location     Type
  2323 ;;  divisor         2    0[COMMON] unsigned int 
  2324 ;;  dividend        2    2[COMMON] unsigned int 
  2325 ;; Auto vars:     Size  Location     Type
  2326 ;;  quotient        2    5[COMMON] unsigned int 
  2327 ;;  counter         1    7[COMMON] unsigned char 
  2328 ;; Return value:  Size  Location     Type
  2329 ;;                  2    0[COMMON] unsigned int 
  2330 ;; Registers used:
  2331 ;;		wreg, status,2, status,0
  2332 ;; Tracked objects:
  2333 ;;		On entry : 0/0
  2334 ;;		On exit  : 0/0
  2335 ;;		Unchanged: 0/0
  2336 ;; Data sizes:     COMMON   BANK0   BANK1   BANK2   BANK3   BANK4
  2337 ;;      Params:         4       0       0       0       0       0
  2338 ;;      Locals:         3       0       0       0       0       0
  2339 ;;      Temps:          1       0       0       0       0       0
  2340 ;;      Totals:         8       0       0       0       0       0
  2341 ;;Total ram usage:        8 bytes
  2342 ;; Hardware stack levels used:    1
  2343 ;; This function calls:
  2344 ;;		Nothing
  2345 ;; This function is called by:
  2346 ;;		_printf
  2347 ;; This function uses a non-reentrant model
  2348 ;;
  2349                           
  2350                           
  2351                           ;psect for function ___lwdiv
  2352  05FC                     ___lwdiv:
  2353  05FC                     l1348:	
  2354                           ;incstack = 0
  2355                           ; Regs used in ___lwdiv: [wreg+status,2+status,0]
  2356                           
  2357  05FC  01F5               	clrf	___lwdiv@quotient
  2358  05FD  01F6               	clrf	___lwdiv@quotient+1
  2359  05FE                     l1350:
  2360  05FE  0870               	movf	___lwdiv@divisor,w
  2361  05FF  0471               	iorwf	___lwdiv@divisor+1,w
  2362  0600  1903               	btfsc	3,2
  2363  0601  2E03               	goto	u491
  2364  0602  2E04               	goto	u490
  2365  0603                     u491:
  2366  0603  2E33               	goto	l1370
  2367  0604                     u490:
  2368  0604                     l1352:
  2369  0604  01F7               	clrf	___lwdiv@counter
  2370  0605  0AF7               	incf	___lwdiv@counter,f
  2371  0606  2E10               	goto	l1358
  2372  0607                     l1354:
  2373  0607  3001               	movlw	1
  2374  0608                     u505:
  2375  0608  35F0               	lslf	___lwdiv@divisor,f
  2376  0609  0DF1               	rlf	___lwdiv@divisor+1,f
  2377  060A  0B89               	decfsz	9,f
  2378  060B  2E08               	goto	u505
  2379  060C                     l1356:
  2380  060C  3001               	movlw	1
  2381  060D  00F4               	movwf	??___lwdiv
  2382  060E  0874               	movf	??___lwdiv,w
  2383  060F  07F7               	addwf	___lwdiv@counter,f
  2384  0610                     l1358:
  2385  0610  1FF1               	btfss	___lwdiv@divisor+1,7
  2386  0611  2E13               	goto	u511
  2387  0612  2E14               	goto	u510
  2388  0613                     u511:
  2389  0613  2E07               	goto	l1354
  2390  0614                     u510:
  2391  0614                     l1360:
  2392  0614  3001               	movlw	1
  2393  0615                     u525:
  2394  0615  35F5               	lslf	___lwdiv@quotient,f
  2395  0616  0DF6               	rlf	___lwdiv@quotient+1,f
  2396  0617  0B89               	decfsz	9,f
  2397  0618  2E15               	goto	u525
  2398  0619  0871               	movf	___lwdiv@divisor+1,w
  2399  061A  0273               	subwf	___lwdiv@dividend+1,w
  2400  061B  1D03               	skipz
  2401  061C  2E1F               	goto	u535
  2402  061D  0870               	movf	___lwdiv@divisor,w
  2403  061E  0272               	subwf	___lwdiv@dividend,w
  2404  061F                     u535:
  2405  061F  1C03               	skipc
  2406  0620  2E22               	goto	u531
  2407  0621  2E23               	goto	u530
  2408  0622                     u531:
  2409  0622  2E28               	goto	l1366
  2410  0623                     u530:
  2411  0623                     l1362:
  2412  0623  0870               	movf	___lwdiv@divisor,w
  2413  0624  02F2               	subwf	___lwdiv@dividend,f
  2414  0625  0871               	movf	___lwdiv@divisor+1,w
  2415  0626  3BF3               	subwfb	___lwdiv@dividend+1,f
  2416  0627                     l1364:
  2417  0627  1475               	bsf	___lwdiv@quotient,0
  2418  0628                     l1366:
  2419  0628  3001               	movlw	1
  2420  0629                     u545:
  2421  0629  36F1               	lsrf	___lwdiv@divisor+1,f
  2422  062A  0CF0               	rrf	___lwdiv@divisor,f
  2423  062B  0B89               	decfsz	9,f
  2424  062C  2E29               	goto	u545
  2425  062D                     l1368:
  2426  062D  3001               	movlw	1
  2427  062E  02F7               	subwf	___lwdiv@counter,f
  2428  062F  1D03               	btfss	3,2
  2429  0630  2E32               	goto	u551
  2430  0631  2E33               	goto	u550
  2431  0632                     u551:
  2432  0632  2E14               	goto	l1360
  2433  0633                     u550:
  2434  0633                     l1370:
  2435  0633  0876               	movf	___lwdiv@quotient+1,w
  2436  0634  00F1               	movwf	?___lwdiv+1
  2437  0635  0875               	movf	___lwdiv@quotient,w
  2438  0636  00F0               	movwf	?___lwdiv
  2439  0637                     l732:
  2440  0637  0008               	return
  2441  0638                     __end_of___lwdiv:
  2442                           
  2443                           	psect	text6
  2444  0573                     __ptext6:	
  2445 ;; *************** function _recv_daikin_frame *****************
  2446 ;; Defined at:
  2447 ;;		line 157 in file "main.c"
  2448 ;; Parameters:    Size  Location     Type
  2449 ;;  size            1    wreg     unsigned char 
  2450 ;; Auto vars:     Size  Location     Type
  2451 ;;  size            1    4[COMMON] unsigned char 
  2452 ;;  a               1    6[COMMON] unsigned char 
  2453 ;;  i               1    5[COMMON] unsigned char 
  2454 ;; Return value:  Size  Location     Type
  2455 ;;                  1    wreg      void 
  2456 ;; Registers used:
  2457 ;;		wreg, status,2, status,0, pclath, cstack
  2458 ;; Tracked objects:
  2459 ;;		On entry : 0/0
  2460 ;;		On exit  : 0/0
  2461 ;;		Unchanged: 0/0
  2462 ;; Data sizes:     COMMON   BANK0   BANK1   BANK2   BANK3   BANK4
  2463 ;;      Params:         0       0       0       0       0       0
  2464 ;;      Locals:         3       0       0       0       0       0
  2465 ;;      Temps:          1       0       0       0       0       0
  2466 ;;      Totals:         4       0       0       0       0       0
  2467 ;;Total ram usage:        4 bytes
  2468 ;; Hardware stack levels used:    1
  2469 ;; Hardware stack levels required when called:    2
  2470 ;; This function calls:
  2471 ;;		_bit_find
  2472 ;;		_putch
  2473 ;; This function is called by:
  2474 ;;		_main
  2475 ;; This function uses a non-reentrant model
  2476 ;;
  2477                           
  2478                           
  2479                           ;psect for function _recv_daikin_frame
  2480  0573                     _recv_daikin_frame:
  2481                           
  2482                           ;incstack = 0
  2483                           ; Regs used in _recv_daikin_frame: [wreg+status,2+status,0+pclath+cstack]
  2484                           ;recv_daikin_frame@size stored from wreg
  2485  0573  00F4               	movwf	recv_daikin_frame@size
  2486  0574                     l1540:
  2487                           
  2488                           ;main.c: 158: uint8_t i;;main.c: 159: for(i = 0; i < size; i++){
  2489  0574  01F5               	clrf	recv_daikin_frame@i
  2490  0575  2D92               	goto	l1552
  2491  0576                     l1542:
  2492                           
  2493                           ;main.c: 160: uint8_t a = bit_find();
  2494  0576  3186  2675  3185   	fcall	_bit_find
  2495  0579  00F3               	movwf	??_recv_daikin_frame
  2496  057A  0873               	movf	??_recv_daikin_frame,w
  2497  057B  00F6               	movwf	recv_daikin_frame@a
  2498  057C                     l1544:
  2499                           
  2500                           ;main.c: 161: putch(a + '0');
  2501  057C  0876               	movf	recv_daikin_frame@a,w
  2502  057D  3E30               	addlw	48
  2503  057E  3185  250F  3185   	fcall	_putch
  2504  0581                     l1546:
  2505                           
  2506                           ;main.c: 162: if(a == 3 || a == 2) break;
  2507  0581  3003               	movlw	3
  2508  0582  0676               	xorwf	recv_daikin_frame@a,w
  2509  0583  1903               	btfsc	3,2
  2510  0584  2D86               	goto	u791
  2511  0585  2D87               	goto	u790
  2512  0586                     u791:
  2513  0586  2D98               	goto	l216
  2514  0587                     u790:
  2515  0587                     l1548:
  2516  0587  3002               	movlw	2
  2517  0588  0676               	xorwf	recv_daikin_frame@a,w
  2518  0589  1D03               	btfss	3,2
  2519  058A  2D8C               	goto	u801
  2520  058B  2D8D               	goto	u800
  2521  058C                     u801:
  2522  058C  2D8E               	goto	l1550
  2523  058D                     u800:
  2524  058D  2D98               	goto	l216
  2525  058E                     l1550:
  2526  058E  3001               	movlw	1
  2527  058F  00F3               	movwf	??_recv_daikin_frame
  2528  0590  0873               	movf	??_recv_daikin_frame,w
  2529  0591  07F5               	addwf	recv_daikin_frame@i,f
  2530  0592                     l1552:
  2531  0592  0874               	movf	recv_daikin_frame@size,w
  2532  0593  0275               	subwf	recv_daikin_frame@i,w
  2533  0594  1C03               	skipc
  2534  0595  2D97               	goto	u811
  2535  0596  2D98               	goto	u810
  2536  0597                     u811:
  2537  0597  2D76               	goto	l1542
  2538  0598                     u810:
  2539  0598                     l216:
  2540  0598  0008               	return
  2541  0599                     __end_of_recv_daikin_frame:
  2542                           
  2543                           	psect	text7
  2544  050F                     __ptext7:	
  2545 ;; *************** function _putch *****************
  2546 ;; Defined at:
  2547 ;;		line 29 in file "main.c"
  2548 ;; Parameters:    Size  Location     Type
  2549 ;;  data            1    wreg     unsigned char 
  2550 ;; Auto vars:     Size  Location     Type
  2551 ;;  data            1    1[COMMON] unsigned char 
  2552 ;; Return value:  Size  Location     Type
  2553 ;;                  1    wreg      void 
  2554 ;; Registers used:
  2555 ;;		wreg, status,2, status,0, pclath, cstack
  2556 ;; Tracked objects:
  2557 ;;		On entry : 0/0
  2558 ;;		On exit  : 0/0
  2559 ;;		Unchanged: 0/0
  2560 ;; Data sizes:     COMMON   BANK0   BANK1   BANK2   BANK3   BANK4
  2561 ;;      Params:         0       0       0       0       0       0
  2562 ;;      Locals:         1       0       0       0       0       0
  2563 ;;      Temps:          0       0       0       0       0       0
  2564 ;;      Totals:         1       0       0       0       0       0
  2565 ;;Total ram usage:        1 bytes
  2566 ;; Hardware stack levels used:    1
  2567 ;; Hardware stack levels required when called:    1
  2568 ;; This function calls:
  2569 ;;		_EUSART_Write
  2570 ;; This function is called by:
  2571 ;;		_main
  2572 ;;		_recv_daikin_reader
  2573 ;;		_recv_daikin_frame
  2574 ;;		_printf
  2575 ;;		_recv_data
  2576 ;; This function uses a non-reentrant model
  2577 ;;
  2578                           
  2579                           
  2580                           ;psect for function _putch
  2581  050F                     _putch:
  2582                           
  2583                           ;incstack = 0
  2584                           ; Regs used in _putch: [wreg+status,2+status,0+pclath+cstack]
  2585                           ;putch@data stored from wreg
  2586  050F  00F1               	movwf	putch@data
  2587  0510                     l1346:
  2588                           
  2589                           ;main.c: 30: EUSART_Write(data);
  2590  0510  0871               	movf	putch@data,w
  2591  0511  3185  2515  3185   	fcall	_EUSART_Write
  2592  0514                     l169:
  2593  0514  0008               	return
  2594  0515                     __end_of_putch:
  2595                           
  2596                           	psect	text8
  2597  0515                     __ptext8:	
  2598 ;; *************** function _EUSART_Write *****************
  2599 ;; Defined at:
  2600 ;;		line 132 in file "mcc_generated_files/eusart.c"
  2601 ;; Parameters:    Size  Location     Type
  2602 ;;  txData          1    wreg     unsigned char 
  2603 ;; Auto vars:     Size  Location     Type
  2604 ;;  txData          1    0[COMMON] unsigned char 
  2605 ;; Return value:  Size  Location     Type
  2606 ;;                  1    wreg      void 
  2607 ;; Registers used:
  2608 ;;		wreg
  2609 ;; Tracked objects:
  2610 ;;		On entry : 0/0
  2611 ;;		On exit  : 0/0
  2612 ;;		Unchanged: 0/0
  2613 ;; Data sizes:     COMMON   BANK0   BANK1   BANK2   BANK3   BANK4
  2614 ;;      Params:         0       0       0       0       0       0
  2615 ;;      Locals:         1       0       0       0       0       0
  2616 ;;      Temps:          0       0       0       0       0       0
  2617 ;;      Totals:         1       0       0       0       0       0
  2618 ;;Total ram usage:        1 bytes
  2619 ;; Hardware stack levels used:    1
  2620 ;; This function calls:
  2621 ;;		Nothing
  2622 ;; This function is called by:
  2623 ;;		_putch
  2624 ;; This function uses a non-reentrant model
  2625 ;;
  2626                           
  2627                           
  2628                           ;psect for function _EUSART_Write
  2629  0515                     _EUSART_Write:
  2630                           
  2631                           ;incstack = 0
  2632                           ; Regs used in _EUSART_Write: [wreg]
  2633                           ;EUSART_Write@txData stored from wreg
  2634  0515  00F0               	movwf	EUSART_Write@txData
  2635  0516                     l1336:
  2636  0516                     l67:	
  2637                           ;eusart.c: 135: {
  2638                           
  2639  0516  0020               	movlb	0	; select bank0
  2640  0517  1E11               	btfss	17,4	;volatile
  2641  0518  2D1A               	goto	u481
  2642  0519  2D1B               	goto	u480
  2643  051A                     u481:
  2644  051A  2D16               	goto	l67
  2645  051B                     u480:
  2646  051B                     l1338:
  2647                           
  2648                           ;eusart.c: 136: };eusart.c: 138: TXREG = txData;
  2649  051B  0870               	movf	EUSART_Write@txData,w
  2650  051C  0023               	movlb	3	; select bank3
  2651  051D  009A               	movwf	26	;volatile
  2652  051E                     l70:
  2653  051E  0008               	return
  2654  051F                     __end_of_EUSART_Write:
  2655                           
  2656                           	psect	text9
  2657  0675                     __ptext9:	
  2658 ;; *************** function _bit_find *****************
  2659 ;; Defined at:
  2660 ;;		line 177 in file "main.c"
  2661 ;; Parameters:    Size  Location     Type
  2662 ;;		None
  2663 ;; Auto vars:     Size  Location     Type
  2664 ;;  width           2    1[COMMON] int 
  2665 ;; Return value:  Size  Location     Type
  2666 ;;                  1    wreg      unsigned char 
  2667 ;; Registers used:
  2668 ;;		wreg, status,2
  2669 ;; Tracked objects:
  2670 ;;		On entry : 0/0
  2671 ;;		On exit  : 0/0
  2672 ;;		Unchanged: 0/0
  2673 ;; Data sizes:     COMMON   BANK0   BANK1   BANK2   BANK3   BANK4
  2674 ;;      Params:         0       0       0       0       0       0
  2675 ;;      Locals:         2       0       0       0       0       0
  2676 ;;      Temps:          1       0       0       0       0       0
  2677 ;;      Totals:         3       0       0       0       0       0
  2678 ;;Total ram usage:        3 bytes
  2679 ;; Hardware stack levels used:    1
  2680 ;; This function calls:
  2681 ;;		Nothing
  2682 ;; This function is called by:
  2683 ;;		_recv_daikin_reader
  2684 ;;		_recv_daikin_frame
  2685 ;;		_recv_data
  2686 ;; This function uses a non-reentrant model
  2687 ;;
  2688                           
  2689                           
  2690                           ;psect for function _bit_find
  2691  0675                     _bit_find:
  2692  0675                     l1478:	
  2693                           ;incstack = 0
  2694                           ; Regs used in _bit_find: [wreg+status,2]
  2695                           
  2696                           
  2697                           ;main.c: 178: int width = 0;
  2698  0675  01F1               	clrf	bit_find@width
  2699  0676  01F2               	clrf	bit_find@width+1
  2700                           
  2701                           ;main.c: 179: while(PORTAbits.RA1 == 0){
  2702  0677  2E80               	goto	l1482
  2703  0678                     l1480:
  2704                           
  2705                           ;main.c: 180: width++;
  2706  0678  3001               	movlw	1
  2707  0679  07F1               	addwf	bit_find@width,f
  2708  067A  3000               	movlw	0
  2709  067B  3DF2               	addwfc	bit_find@width+1,f
  2710                           
  2711                           ;main.c: 181: _delay((unsigned long)((5)*(32000000/4000000.0)));
  2712  067C  300D               	movlw	13
  2713  067D                     u947:
  2714  067D  0B89               	decfsz	9,f
  2715  067E  2E7D               	goto	u947
  2716  067F  0000               	nop
  2717  0680                     l1482:
  2718  0680  0020               	movlb	0	; select bank0
  2719  0681  1C8C               	btfss	12,1	;volatile
  2720  0682  2E84               	goto	u701
  2721  0683  2E85               	goto	u700
  2722  0684                     u701:
  2723  0684  2E78               	goto	l1480
  2724  0685                     u700:
  2725  0685                     l1484:
  2726                           
  2727                           ;main.c: 182: };main.c: 191: width = 0;
  2728  0685  01F1               	clrf	bit_find@width
  2729  0686  01F2               	clrf	bit_find@width+1
  2730                           
  2731                           ;main.c: 192: while(PORTAbits.RA1 == 1){
  2732  0687  2E9F               	goto	l222
  2733  0688                     l1486:
  2734                           
  2735                           ;main.c: 193: width++;
  2736  0688  3001               	movlw	1
  2737  0689  07F1               	addwf	bit_find@width,f
  2738  068A  3000               	movlw	0
  2739  068B  3DF2               	addwfc	bit_find@width+1,f
  2740                           
  2741                           ;main.c: 194: _delay((unsigned long)((5)*(32000000/4000000.0)));
  2742  068C  300D               	movlw	13
  2743  068D                     u957:
  2744  068D  0B89               	decfsz	9,f
  2745  068E  2E8D               	goto	u957
  2746  068F  0000               	nop
  2747                           
  2748                           ;main.c: 202: if(width > 1600){
  2749  0690  0872               	movf	bit_find@width+1,w
  2750  0691  3A80               	xorlw	128
  2751  0692  00F0               	movwf	??_bit_find
  2752  0693  3086               	movlw	134
  2753  0694  0270               	subwf	??_bit_find,w
  2754  0695  1D03               	skipz
  2755  0696  2E99               	goto	u715
  2756  0697  3041               	movlw	65
  2757  0698  0271               	subwf	bit_find@width,w
  2758  0699                     u715:
  2759  0699  1C03               	skipc
  2760  069A  2E9C               	goto	u711
  2761  069B  2E9D               	goto	u710
  2762  069C                     u711:
  2763  069C  2E9F               	goto	l222
  2764  069D                     u710:
  2765  069D                     l1488:
  2766                           
  2767                           ;main.c: 203: return 3;
  2768  069D  3003               	movlw	3
  2769  069E  2EB4               	goto	l225
  2770  069F                     l222:
  2771  069F  0020               	movlb	0	; select bank0
  2772  06A0  188C               	btfsc	12,1	;volatile
  2773  06A1  2EA3               	goto	u721
  2774  06A2  2EA4               	goto	u720
  2775  06A3                     u721:
  2776  06A3  2E88               	goto	l1486
  2777  06A4                     u720:
  2778  06A4                     l1492:
  2779                           
  2780                           ;main.c: 204: };main.c: 205: };main.c: 207: if(width < 100){
  2781  06A4  0872               	movf	bit_find@width+1,w
  2782  06A5  3A80               	xorlw	128
  2783  06A6  00F0               	movwf	??_bit_find
  2784  06A7  3080               	movlw	128
  2785  06A8  0270               	subwf	??_bit_find,w
  2786  06A9  1D03               	skipz
  2787  06AA  2EAD               	goto	u735
  2788  06AB  3064               	movlw	100
  2789  06AC  0271               	subwf	bit_find@width,w
  2790  06AD                     u735:
  2791  06AD  1803               	skipnc
  2792  06AE  2EB0               	goto	u731
  2793  06AF  2EB1               	goto	u730
  2794  06B0                     u731:
  2795  06B0  2EB3               	goto	l1500
  2796  06B1                     u730:
  2797  06B1                     l1494:
  2798                           
  2799                           ;main.c: 208: return 0;
  2800  06B1  3000               	movlw	0
  2801  06B2  2EB4               	goto	l225
  2802  06B3                     l1500:
  2803                           
  2804                           ;main.c: 210: return 1;
  2805  06B3  3001               	movlw	1
  2806  06B4                     l225:
  2807  06B4  0008               	return
  2808  06B5                     __end_of_bit_find:
  2809                           
  2810                           	psect	text10
  2811  052B                     __ptext10:	
  2812 ;; *************** function _SYSTEM_Initialize *****************
  2813 ;; Defined at:
  2814 ;;		line 50 in file "mcc_generated_files/mcc.c"
  2815 ;; Parameters:    Size  Location     Type
  2816 ;;		None
  2817 ;; Auto vars:     Size  Location     Type
  2818 ;;		None
  2819 ;; Return value:  Size  Location     Type
  2820 ;;                  1    wreg      void 
  2821 ;; Registers used:
  2822 ;;		wreg, status,2, status,0, pclath, cstack
  2823 ;; Tracked objects:
  2824 ;;		On entry : 0/0
  2825 ;;		On exit  : 0/0
  2826 ;;		Unchanged: 0/0
  2827 ;; Data sizes:     COMMON   BANK0   BANK1   BANK2   BANK3   BANK4
  2828 ;;      Params:         0       0       0       0       0       0
  2829 ;;      Locals:         0       0       0       0       0       0
  2830 ;;      Temps:          0       0       0       0       0       0
  2831 ;;      Totals:         0       0       0       0       0       0
  2832 ;;Total ram usage:        0 bytes
  2833 ;; Hardware stack levels used:    1
  2834 ;; Hardware stack levels required when called:    2
  2835 ;; This function calls:
  2836 ;;		_EUSART_Initialize
  2837 ;;		_OSCILLATOR_Initialize
  2838 ;;		_PIN_MANAGER_Initialize
  2839 ;;		_WDT_Initialize
  2840 ;; This function is called by:
  2841 ;;		_main
  2842 ;; This function uses a non-reentrant model
  2843 ;;
  2844                           
  2845                           
  2846                           ;psect for function _SYSTEM_Initialize
  2847  052B                     _SYSTEM_Initialize:
  2848  052B                     l1504:	
  2849                           ;incstack = 0
  2850                           ; Regs used in _SYSTEM_Initialize: [wreg+status,2+status,0+pclath+cstack]
  2851                           
  2852                           
  2853                           ;mcc.c: 53: PIN_MANAGER_Initialize();
  2854  052B  3185  2538  3185   	fcall	_PIN_MANAGER_Initialize
  2855                           
  2856                           ;mcc.c: 54: OSCILLATOR_Initialize();
  2857  052E  3185  251F  3185   	fcall	_OSCILLATOR_Initialize
  2858                           
  2859                           ;mcc.c: 55: WDT_Initialize();
  2860  0531  3184  24F9  3185   	fcall	_WDT_Initialize
  2861                           
  2862                           ;mcc.c: 56: EUSART_Initialize();
  2863  0534  3185  2550  3185   	fcall	_EUSART_Initialize
  2864  0537                     l109:
  2865  0537  0008               	return
  2866  0538                     __end_of_SYSTEM_Initialize:
  2867                           
  2868                           	psect	text11
  2869  04F9                     __ptext11:	
  2870 ;; *************** function _WDT_Initialize *****************
  2871 ;; Defined at:
  2872 ;;		line 73 in file "mcc_generated_files/mcc.c"
  2873 ;; Parameters:    Size  Location     Type
  2874 ;;		None
  2875 ;; Auto vars:     Size  Location     Type
  2876 ;;		None
  2877 ;; Return value:  Size  Location     Type
  2878 ;;                  1    wreg      void 
  2879 ;; Registers used:
  2880 ;;		wreg
  2881 ;; Tracked objects:
  2882 ;;		On entry : 0/0
  2883 ;;		On exit  : 0/0
  2884 ;;		Unchanged: 0/0
  2885 ;; Data sizes:     COMMON   BANK0   BANK1   BANK2   BANK3   BANK4
  2886 ;;      Params:         0       0       0       0       0       0
  2887 ;;      Locals:         0       0       0       0       0       0
  2888 ;;      Temps:          0       0       0       0       0       0
  2889 ;;      Totals:         0       0       0       0       0       0
  2890 ;;Total ram usage:        0 bytes
  2891 ;; Hardware stack levels used:    1
  2892 ;; This function calls:
  2893 ;;		Nothing
  2894 ;; This function is called by:
  2895 ;;		_SYSTEM_Initialize
  2896 ;; This function uses a non-reentrant model
  2897 ;;
  2898                           
  2899                           
  2900                           ;psect for function _WDT_Initialize
  2901  04F9                     _WDT_Initialize:
  2902  04F9                     l1428:	
  2903                           ;incstack = 0
  2904                           ; Regs used in _WDT_Initialize: [wreg]
  2905                           
  2906                           
  2907                           ;mcc.c: 76: WDTCON = 0x16;
  2908  04F9  3016               	movlw	22
  2909  04FA  0021               	movlb	1	; select bank1
  2910  04FB  0097               	movwf	23	;volatile
  2911  04FC                     l118:
  2912  04FC  0008               	return
  2913  04FD                     __end_of_WDT_Initialize:
  2914                           
  2915                           	psect	text12
  2916  0538                     __ptext12:	
  2917 ;; *************** function _PIN_MANAGER_Initialize *****************
  2918 ;; Defined at:
  2919 ;;		line 55 in file "mcc_generated_files/pin_manager.c"
  2920 ;; Parameters:    Size  Location     Type
  2921 ;;		None
  2922 ;; Auto vars:     Size  Location     Type
  2923 ;;		None
  2924 ;; Return value:  Size  Location     Type
  2925 ;;                  1    wreg      void 
  2926 ;; Registers used:
  2927 ;;		wreg, status,2
  2928 ;; Tracked objects:
  2929 ;;		On entry : 0/0
  2930 ;;		On exit  : 0/0
  2931 ;;		Unchanged: 0/0
  2932 ;; Data sizes:     COMMON   BANK0   BANK1   BANK2   BANK3   BANK4
  2933 ;;      Params:         0       0       0       0       0       0
  2934 ;;      Locals:         0       0       0       0       0       0
  2935 ;;      Temps:          0       0       0       0       0       0
  2936 ;;      Totals:         0       0       0       0       0       0
  2937 ;;Total ram usage:        0 bytes
  2938 ;; Hardware stack levels used:    1
  2939 ;; This function calls:
  2940 ;;		Nothing
  2941 ;; This function is called by:
  2942 ;;		_SYSTEM_Initialize
  2943 ;; This function uses a non-reentrant model
  2944 ;;
  2945                           
  2946                           
  2947                           ;psect for function _PIN_MANAGER_Initialize
  2948  0538                     _PIN_MANAGER_Initialize:
  2949  0538                     l1406:	
  2950                           ;incstack = 0
  2951                           ; Regs used in _PIN_MANAGER_Initialize: [wreg+status,2]
  2952                           
  2953                           
  2954                           ;pin_manager.c: 60: LATA = 0x00;
  2955  0538  0022               	movlb	2	; select bank2
  2956  0539  018C               	clrf	12	;volatile
  2957                           
  2958                           ;pin_manager.c: 61: LATB = 0x00;
  2959  053A  018D               	clrf	13	;volatile
  2960  053B                     l1408:
  2961                           
  2962                           ;pin_manager.c: 66: TRISA = 0xF3;
  2963  053B  30F3               	movlw	243
  2964  053C  0021               	movlb	1	; select bank1
  2965  053D  008C               	movwf	12	;volatile
  2966  053E                     l1410:
  2967                           
  2968                           ;pin_manager.c: 67: TRISB = 0xFF;
  2969  053E  30FF               	movlw	255
  2970  053F  008D               	movwf	13	;volatile
  2971  0540                     l1412:
  2972                           
  2973                           ;pin_manager.c: 72: ANSELB = 0xDA;
  2974  0540  30DA               	movlw	218
  2975  0541  0023               	movlb	3	; select bank3
  2976  0542  008D               	movwf	13	;volatile
  2977  0543                     l1414:
  2978                           
  2979                           ;pin_manager.c: 73: ANSELA = 0x11;
  2980  0543  3011               	movlw	17
  2981  0544  008C               	movwf	12	;volatile
  2982                           
  2983                           ;pin_manager.c: 78: WPUB = 0x00;
  2984  0545  0024               	movlb	4	; select bank4
  2985  0546  018D               	clrf	13	;volatile
  2986                           
  2987                           ;pin_manager.c: 79: WPUA = 0x00;
  2988  0547  018C               	clrf	12	;volatile
  2989  0548                     l1416:
  2990                           
  2991                           ;pin_manager.c: 80: OPTION_REGbits.nWPUEN = 1;
  2992  0548  0021               	movlb	1	; select bank1
  2993  0549  1795               	bsf	21,7	;volatile
  2994  054A                     l1418:
  2995                           
  2996                           ;pin_manager.c: 86: APFCON0 = 0x80;
  2997  054A  3080               	movlw	128
  2998  054B  0022               	movlb	2	; select bank2
  2999  054C  009D               	movwf	29	;volatile
  3000  054D                     l1420:
  3001                           
  3002                           ;pin_manager.c: 87: APFCON1 = 0x01;
  3003  054D  3001               	movlw	1
  3004  054E  009E               	movwf	30	;volatile
  3005  054F                     l143:
  3006  054F  0008               	return
  3007  0550                     __end_of_PIN_MANAGER_Initialize:
  3008                           
  3009                           	psect	text13
  3010  051F                     __ptext13:	
  3011 ;; *************** function _OSCILLATOR_Initialize *****************
  3012 ;; Defined at:
  3013 ;;		line 59 in file "mcc_generated_files/mcc.c"
  3014 ;; Parameters:    Size  Location     Type
  3015 ;;		None
  3016 ;; Auto vars:     Size  Location     Type
  3017 ;;		None
  3018 ;; Return value:  Size  Location     Type
  3019 ;;                  1    wreg      void 
  3020 ;; Registers used:
  3021 ;;		wreg, status,2
  3022 ;; Tracked objects:
  3023 ;;		On entry : 0/0
  3024 ;;		On exit  : 0/0
  3025 ;;		Unchanged: 0/0
  3026 ;; Data sizes:     COMMON   BANK0   BANK1   BANK2   BANK3   BANK4
  3027 ;;      Params:         0       0       0       0       0       0
  3028 ;;      Locals:         0       0       0       0       0       0
  3029 ;;      Temps:          0       0       0       0       0       0
  3030 ;;      Totals:         0       0       0       0       0       0
  3031 ;;Total ram usage:        0 bytes
  3032 ;; Hardware stack levels used:    1
  3033 ;; This function calls:
  3034 ;;		Nothing
  3035 ;; This function is called by:
  3036 ;;		_SYSTEM_Initialize
  3037 ;; This function uses a non-reentrant model
  3038 ;;
  3039                           
  3040                           
  3041                           ;psect for function _OSCILLATOR_Initialize
  3042  051F                     _OSCILLATOR_Initialize:
  3043  051F                     l1422:	
  3044                           ;incstack = 0
  3045                           ; Regs used in _OSCILLATOR_Initialize: [wreg+status,2]
  3046                           
  3047                           
  3048                           ;mcc.c: 62: OSCCON = 0x70;
  3049  051F  3070               	movlw	112
  3050  0520  0021               	movlb	1	; select bank1
  3051  0521  0099               	movwf	25	;volatile
  3052  0522                     l1424:
  3053                           
  3054                           ;mcc.c: 64: OSCTUNE = 0x00;
  3055  0522  0198               	clrf	24	;volatile
  3056  0523                     l1426:
  3057                           
  3058                           ;mcc.c: 66: BORCON = 0x00;
  3059  0523  0022               	movlb	2	; select bank2
  3060  0524  0196               	clrf	22	;volatile
  3061  0525                     l112:	
  3062                           ;mcc.c: 69: {
  3063                           
  3064  0525  0021               	movlb	1	; select bank1
  3065  0526  1F1A               	btfss	26,6	;volatile
  3066  0527  2D29               	goto	u621
  3067  0528  2D2A               	goto	u620
  3068  0529                     u621:
  3069  0529  2D25               	goto	l112
  3070  052A                     u620:
  3071  052A                     l115:
  3072  052A  0008               	return
  3073  052B                     __end_of_OSCILLATOR_Initialize:
  3074                           
  3075                           	psect	text14
  3076  0550                     __ptext14:	
  3077 ;; *************** function _EUSART_Initialize *****************
  3078 ;; Defined at:
  3079 ;;		line 66 in file "mcc_generated_files/eusart.c"
  3080 ;; Parameters:    Size  Location     Type
  3081 ;;		None
  3082 ;; Auto vars:     Size  Location     Type
  3083 ;;		None
  3084 ;; Return value:  Size  Location     Type
  3085 ;;                  1    wreg      void 
  3086 ;; Registers used:
  3087 ;;		wreg, status,2, status,0, pclath, cstack
  3088 ;; Tracked objects:
  3089 ;;		On entry : 0/0
  3090 ;;		On exit  : 0/0
  3091 ;;		Unchanged: 0/0
  3092 ;; Data sizes:     COMMON   BANK0   BANK1   BANK2   BANK3   BANK4
  3093 ;;      Params:         0       0       0       0       0       0
  3094 ;;      Locals:         0       0       0       0       0       0
  3095 ;;      Temps:          0       0       0       0       0       0
  3096 ;;      Totals:         0       0       0       0       0       0
  3097 ;;Total ram usage:        0 bytes
  3098 ;; Hardware stack levels used:    1
  3099 ;; Hardware stack levels required when called:    1
  3100 ;; This function calls:
  3101 ;;		_EUSART_SetErrorHandler
  3102 ;;		_EUSART_SetFramingErrorHandler
  3103 ;;		_EUSART_SetOverrunErrorHandler
  3104 ;; This function is called by:
  3105 ;;		_SYSTEM_Initialize
  3106 ;; This function uses a non-reentrant model
  3107 ;;
  3108                           
  3109                           
  3110                           ;psect for function _EUSART_Initialize
  3111  0550                     _EUSART_Initialize:
  3112  0550                     l1396:	
  3113                           ;incstack = 0
  3114                           ; Regs used in _EUSART_Initialize: [wreg+status,2+status,0+pclath+cstack]
  3115                           
  3116                           
  3117                           ;eusart.c: 71: BAUDCON = 0x08;
  3118  0550  3008               	movlw	8
  3119  0551  0023               	movlb	3	; select bank3
  3120  0552  009F               	movwf	31	;volatile
  3121                           
  3122                           ;eusart.c: 74: RCSTA = 0x90;
  3123  0553  3090               	movlw	144
  3124  0554  009D               	movwf	29	;volatile
  3125                           
  3126                           ;eusart.c: 77: TXSTA = 0x24;
  3127  0555  3024               	movlw	36
  3128  0556  009E               	movwf	30	;volatile
  3129                           
  3130                           ;eusart.c: 80: SPBRGL = 0x40;
  3131  0557  3040               	movlw	64
  3132  0558  009B               	movwf	27	;volatile
  3133                           
  3134                           ;eusart.c: 83: SPBRGH = 0x03;
  3135  0559  3003               	movlw	3
  3136  055A  009C               	movwf	28	;volatile
  3137  055B                     l1398:
  3138                           
  3139                           ;eusart.c: 86: EUSART_SetFramingErrorHandler(EUSART_DefaultFramingErrorHandler);
  3140  055B  3000               	movlw	0
  3141  055C  00F0               	movwf	EUSART_SetFramingErrorHandler@interruptHandler
  3142  055D  3000               	movlw	0
  3143  055E  00F1               	movwf	EUSART_SetFramingErrorHandler@interruptHandler+1
  3144  055F  3185  2503  3185   	fcall	_EUSART_SetFramingErrorHandler
  3145  0562                     l1400:
  3146                           
  3147                           ;eusart.c: 87: EUSART_SetOverrunErrorHandler(EUSART_DefaultOverrunErrorHandler);
  3148  0562  3000               	movlw	0
  3149  0563  00F0               	movwf	EUSART_SetOverrunErrorHandler@interruptHandler
  3150  0564  3000               	movlw	0
  3151  0565  00F1               	movwf	EUSART_SetOverrunErrorHandler@interruptHandler+1
  3152  0566  3185  2509  3185   	fcall	_EUSART_SetOverrunErrorHandler
  3153  0569                     l1402:
  3154                           
  3155                           ;eusart.c: 88: EUSART_SetErrorHandler(EUSART_DefaultErrorHandler);
  3156  0569  3000               	movlw	0
  3157  056A  00F0               	movwf	EUSART_SetErrorHandler@interruptHandler
  3158  056B  3000               	movlw	0
  3159  056C  00F1               	movwf	EUSART_SetErrorHandler@interruptHandler+1
  3160  056D  3184  24FD  3185   	fcall	_EUSART_SetErrorHandler
  3161  0570                     l1404:
  3162                           
  3163                           ;eusart.c: 90: eusartRxLastError.status = 0;
  3164  0570  0020               	movlb	0	; select bank0
  3165  0571  01BB               	clrf	_eusartRxLastError	;volatile
  3166  0572                     l43:
  3167  0572  0008               	return
  3168  0573                     __end_of_EUSART_Initialize:
  3169                           
  3170                           	psect	text15
  3171  0509                     __ptext15:	
  3172 ;; *************** function _EUSART_SetOverrunErrorHandler *****************
  3173 ;; Defined at:
  3174 ;;		line 161 in file "mcc_generated_files/eusart.c"
  3175 ;; Parameters:    Size  Location     Type
  3176 ;;  interruptHan    2    0[COMMON] PTR FTN()void 
  3177 ;;		 -> EUSART_DefaultOverrunErrorHandler(1), 
  3178 ;; Auto vars:     Size  Location     Type
  3179 ;;		None
  3180 ;; Return value:  Size  Location     Type
  3181 ;;                  1    wreg      void 
  3182 ;; Registers used:
  3183 ;;		wreg
  3184 ;; Tracked objects:
  3185 ;;		On entry : 0/0
  3186 ;;		On exit  : 0/0
  3187 ;;		Unchanged: 0/0
  3188 ;; Data sizes:     COMMON   BANK0   BANK1   BANK2   BANK3   BANK4
  3189 ;;      Params:         2       0       0       0       0       0
  3190 ;;      Locals:         0       0       0       0       0       0
  3191 ;;      Temps:          0       0       0       0       0       0
  3192 ;;      Totals:         2       0       0       0       0       0
  3193 ;;Total ram usage:        2 bytes
  3194 ;; Hardware stack levels used:    1
  3195 ;; This function calls:
  3196 ;;		Nothing
  3197 ;; This function is called by:
  3198 ;;		_EUSART_Initialize
  3199 ;; This function uses a non-reentrant model
  3200 ;;
  3201                           
  3202                           
  3203                           ;psect for function _EUSART_SetOverrunErrorHandler
  3204  0509                     _EUSART_SetOverrunErrorHandler:
  3205  0509                     l1342:	
  3206                           ;incstack = 0
  3207                           ; Regs used in _EUSART_SetOverrunErrorHandler: [wreg]
  3208                           
  3209                           
  3210                           ;eusart.c: 162: EUSART_OverrunErrorHandler = interruptHandler;
  3211  0509  0871               	movf	EUSART_SetOverrunErrorHandler@interruptHandler+1,w
  3212  050A  0020               	movlb	0	; select bank0
  3213  050B  00B8               	movwf	_EUSART_OverrunErrorHandler+1
  3214  050C  0870               	movf	EUSART_SetOverrunErrorHandler@interruptHandler,w
  3215  050D  00B7               	movwf	_EUSART_OverrunErrorHandler
  3216  050E                     l85:
  3217  050E  0008               	return
  3218  050F                     __end_of_EUSART_SetOverrunErrorHandler:
  3219                           
  3220                           	psect	text16
  3221  0503                     __ptext16:	
  3222 ;; *************** function _EUSART_SetFramingErrorHandler *****************
  3223 ;; Defined at:
  3224 ;;		line 157 in file "mcc_generated_files/eusart.c"
  3225 ;; Parameters:    Size  Location     Type
  3226 ;;  interruptHan    2    0[COMMON] PTR FTN()void 
  3227 ;;		 -> EUSART_DefaultFramingErrorHandler(1), 
  3228 ;; Auto vars:     Size  Location     Type
  3229 ;;		None
  3230 ;; Return value:  Size  Location     Type
  3231 ;;                  1    wreg      void 
  3232 ;; Registers used:
  3233 ;;		wreg
  3234 ;; Tracked objects:
  3235 ;;		On entry : 0/0
  3236 ;;		On exit  : 0/0
  3237 ;;		Unchanged: 0/0
  3238 ;; Data sizes:     COMMON   BANK0   BANK1   BANK2   BANK3   BANK4
  3239 ;;      Params:         2       0       0       0       0       0
  3240 ;;      Locals:         0       0       0       0       0       0
  3241 ;;      Temps:          0       0       0       0       0       0
  3242 ;;      Totals:         2       0       0       0       0       0
  3243 ;;Total ram usage:        2 bytes
  3244 ;; Hardware stack levels used:    1
  3245 ;; This function calls:
  3246 ;;		Nothing
  3247 ;; This function is called by:
  3248 ;;		_EUSART_Initialize
  3249 ;; This function uses a non-reentrant model
  3250 ;;
  3251                           
  3252                           
  3253                           ;psect for function _EUSART_SetFramingErrorHandler
  3254  0503                     _EUSART_SetFramingErrorHandler:
  3255  0503                     l1340:	
  3256                           ;incstack = 0
  3257                           ; Regs used in _EUSART_SetFramingErrorHandler: [wreg]
  3258                           
  3259                           
  3260                           ;eusart.c: 158: EUSART_FramingErrorHandler = interruptHandler;
  3261  0503  0871               	movf	EUSART_SetFramingErrorHandler@interruptHandler+1,w
  3262  0504  0020               	movlb	0	; select bank0
  3263  0505  00BA               	movwf	_EUSART_FramingErrorHandler+1
  3264  0506  0870               	movf	EUSART_SetFramingErrorHandler@interruptHandler,w
  3265  0507  00B9               	movwf	_EUSART_FramingErrorHandler
  3266  0508                     l82:
  3267  0508  0008               	return
  3268  0509                     __end_of_EUSART_SetFramingErrorHandler:
  3269                           
  3270                           	psect	text17
  3271  04FD                     __ptext17:	
  3272 ;; *************** function _EUSART_SetErrorHandler *****************
  3273 ;; Defined at:
  3274 ;;		line 165 in file "mcc_generated_files/eusart.c"
  3275 ;; Parameters:    Size  Location     Type
  3276 ;;  interruptHan    2    0[COMMON] PTR FTN()void 
  3277 ;;		 -> EUSART_DefaultErrorHandler(1), 
  3278 ;; Auto vars:     Size  Location     Type
  3279 ;;		None
  3280 ;; Return value:  Size  Location     Type
  3281 ;;                  1    wreg      void 
  3282 ;; Registers used:
  3283 ;;		wreg
  3284 ;; Tracked objects:
  3285 ;;		On entry : 0/0
  3286 ;;		On exit  : 0/0
  3287 ;;		Unchanged: 0/0
  3288 ;; Data sizes:     COMMON   BANK0   BANK1   BANK2   BANK3   BANK4
  3289 ;;      Params:         2       0       0       0       0       0
  3290 ;;      Locals:         0       0       0       0       0       0
  3291 ;;      Temps:          0       0       0       0       0       0
  3292 ;;      Totals:         2       0       0       0       0       0
  3293 ;;Total ram usage:        2 bytes
  3294 ;; Hardware stack levels used:    1
  3295 ;; This function calls:
  3296 ;;		Nothing
  3297 ;; This function is called by:
  3298 ;;		_EUSART_Initialize
  3299 ;; This function uses a non-reentrant model
  3300 ;;
  3301                           
  3302                           
  3303                           ;psect for function _EUSART_SetErrorHandler
  3304  04FD                     _EUSART_SetErrorHandler:
  3305  04FD                     l1344:	
  3306                           ;incstack = 0
  3307                           ; Regs used in _EUSART_SetErrorHandler: [wreg]
  3308                           
  3309                           
  3310                           ;eusart.c: 166: EUSART_ErrorHandler = interruptHandler;
  3311  04FD  0871               	movf	EUSART_SetErrorHandler@interruptHandler+1,w
  3312  04FE  0020               	movlb	0	; select bank0
  3313  04FF  00B6               	movwf	_EUSART_ErrorHandler+1
  3314  0500  0870               	movf	EUSART_SetErrorHandler@interruptHandler,w
  3315  0501  00B5               	movwf	_EUSART_ErrorHandler
  3316  0502                     l88:
  3317  0502  0008               	return
  3318  0503                     __end_of_EUSART_SetErrorHandler:
  3319  007E                     btemp	set	126	;btemp
  3320  007E                     wtemp0	set	126
  3321                           
  3322                           	psect	config
  3323                           
  3324                           ;Config register CONFIG1 @ 0x8007
  3325                           ;	Oscillator Selection
  3326                           ;	FOSC = INTOSC, INTOSC oscillator: I/O function on CLKIN pin
  3327                           ;	Watchdog Timer Enable
  3328                           ;	WDTE = OFF, WDT disabled
  3329                           ;	Power-up Timer Enable
  3330                           ;	PWRTE = OFF, PWRT disabled
  3331                           ;	MCLR Pin Function Select
  3332                           ;	MCLRE = ON, MCLR/VPP pin function is MCLR
  3333                           ;	Flash Program Memory Code Protection
  3334                           ;	CP = OFF, Program memory code protection is disabled
  3335                           ;	Data Memory Code Protection
  3336                           ;	CPD = OFF, Data memory code protection is disabled
  3337                           ;	Brown-out Reset Enable
  3338                           ;	BOREN = ON, Brown-out Reset enabled
  3339                           ;	Clock Out Enable
  3340                           ;	CLKOUTEN = OFF, CLKOUT function is disabled. I/O or oscillator function on the CLKOUT 
      +                          pin
  3341                           ;	Internal/External Switchover
  3342                           ;	IESO = ON, Internal/External Switchover mode is enabled
  3343                           ;	Fail-Safe Clock Monitor Enable
  3344                           ;	FCMEN = ON, Fail-Safe Clock Monitor is enabled
  3345  8007                     	org	32775
  3346  8007  3FE4               	dw	16356
  3347                           
  3348                           ;Config register CONFIG2 @ 0x8008
  3349                           ;	Flash Memory Self-Write Protection
  3350                           ;	WRT = OFF, Write protection off
  3351                           ;	PLL Enable
  3352                           ;	PLLEN = ON, 4x PLL enabled
  3353                           ;	Stack Overflow/Underflow Reset Enable
  3354                           ;	STVREN = ON, Stack Overflow or Underflow will cause a Reset
  3355                           ;	Brown-out Reset Voltage Selection
  3356                           ;	BORV = LO, Brown-out Reset Voltage (Vbor), low trip point selected.
  3357                           ;	Low-Voltage Programming Enable
  3358                           ;	LVP = OFF, High-voltage on MCLR/VPP must be used for programming
  3359  8008                     	org	32776
  3360  8008  1FFF               	dw	8191

Data Sizes:
    Strings     93
    Constant    10
    Data        0
    BSS         7
    Persistent  32
    Stack       0

Auto Spaces:
    Space          Size  Autos    Used
    COMMON           14     14      14
    BANK0            80     21      28
    BANK1            80      0       0
    BANK2            80      0       0
    BANK3            80      0       0
    BANK4            48      0       0

Pointer List with Targets:

    printf@f	PTR const unsigned char  size(2) Largest target is 33
		 -> STR_5(CODE[3]), STR_4(CODE[33]), STR_3(CODE[6]), STR_2(CODE[32]), 
		 -> STR_1(CODE[19]), 

    printf@ap	PTR void [1] size(1) Largest target is 2
		 -> ?_printf(BANK0[2]), 

    EUSART_SetErrorHandler@interruptHandler	PTR FTN()void  size(2) Largest target is 1
		 -> EUSART_DefaultErrorHandler(), 

    EUSART_ErrorHandler	PTR FTN()void  size(2) Largest target is 1
		 -> Absolute function(), EUSART_DefaultErrorHandler(), 

    EUSART_SetOverrunErrorHandler@interruptHandler	PTR FTN()void  size(2) Largest target is 1
		 -> EUSART_DefaultOverrunErrorHandler(), 

    EUSART_OverrunErrorHandler	PTR FTN()void  size(2) Largest target is 1
		 -> Absolute function(), EUSART_DefaultOverrunErrorHandler(), 

    EUSART_SetFramingErrorHandler@interruptHandler	PTR FTN()void  size(2) Largest target is 1
		 -> EUSART_DefaultFramingErrorHandler(), 

    EUSART_FramingErrorHandler	PTR FTN()void  size(2) Largest target is 1
		 -> Absolute function(), EUSART_DefaultFramingErrorHandler(), 


Critical Paths under _main in COMMON

    _printf->___lwmod
    ___lwmod->___lwdiv
    _recv_daikin_frame->_bit_find
    _putch->_EUSART_Write
    _EUSART_Initialize->_EUSART_SetErrorHandler
    _EUSART_Initialize->_EUSART_SetFramingErrorHandler
    _EUSART_Initialize->_EUSART_SetOverrunErrorHandler

Critical Paths under _main in BANK0

    _main->_recv_daikin_reader
    _recv_daikin_reader->_printf

Critical Paths under _main in BANK1

    None.

Critical Paths under _main in BANK2

    None.

Critical Paths under _main in BANK3

    None.

Critical Paths under _main in BANK4

    None.

Call Graph Tables:

 ---------------------------------------------------------------------------------
 (Depth) Function   	        Calls       Base Space   Used Autos Params    Refs
 ---------------------------------------------------------------------------------
 (0) _main                                                 3     3      0    3646
                                             18 BANK0      3     3      0
                  _SYSTEM_Initialize
                             _printf
                              _putch
                  _recv_daikin_frame
                 _recv_daikin_reader
                        _recv_reader
 ---------------------------------------------------------------------------------
 (1) _recv_reader                                          3     3      0      48
                                              0 COMMON     3     3      0
 ---------------------------------------------------------------------------------
 (1) _recv_daikin_reader                                   4     4      0    1596
                                             14 BANK0      4     4      0
                           _bit_find
                             _printf
                              _putch
 ---------------------------------------------------------------------------------
 (2) _printf                                              22    18      4    1435
                                              0 BANK0     14    10      4
                            ___lwdiv
                            ___lwmod
                              _putch
 ---------------------------------------------------------------------------------
 (3) ___lwmod                                              6     2      4     311
                                              8 COMMON     6     2      4
                            ___lwdiv (ARG)
 ---------------------------------------------------------------------------------
 (3) ___lwdiv                                              8     4      4     314
                                              0 COMMON     8     4      4
 ---------------------------------------------------------------------------------
 (1) _recv_daikin_frame                                    4     4      0     205
                                              3 COMMON     4     4      0
                           _bit_find
                              _putch
 ---------------------------------------------------------------------------------
 (2) _putch                                                1     1      0      44
                                              1 COMMON     1     1      0
                       _EUSART_Write
 ---------------------------------------------------------------------------------
 (3) _EUSART_Write                                         1     1      0      22
                                              0 COMMON     1     1      0
 ---------------------------------------------------------------------------------
 (2) _bit_find                                             3     3      0      48
                                              0 COMMON     3     3      0
 ---------------------------------------------------------------------------------
 (1) _SYSTEM_Initialize                                    0     0      0     294
                  _EUSART_Initialize
              _OSCILLATOR_Initialize
             _PIN_MANAGER_Initialize
                     _WDT_Initialize
 ---------------------------------------------------------------------------------
 (2) _WDT_Initialize                                       0     0      0       0
 ---------------------------------------------------------------------------------
 (2) _PIN_MANAGER_Initialize                               0     0      0       0
 ---------------------------------------------------------------------------------
 (2) _OSCILLATOR_Initialize                                0     0      0       0
 ---------------------------------------------------------------------------------
 (2) _EUSART_Initialize                                    0     0      0     294
             _EUSART_SetErrorHandler
      _EUSART_SetFramingErrorHandler
      _EUSART_SetOverrunErrorHandler
 ---------------------------------------------------------------------------------
 (3) _EUSART_SetOverrunErrorHandler                        2     0      2      98
                                              0 COMMON     2     0      2
 ---------------------------------------------------------------------------------
 (3) _EUSART_SetFramingErrorHandler                        2     0      2      98
                                              0 COMMON     2     0      2
 ---------------------------------------------------------------------------------
 (3) _EUSART_SetErrorHandler                               2     0      2      98
                                              0 COMMON     2     0      2
 ---------------------------------------------------------------------------------
 Estimated maximum stack depth 3
 ---------------------------------------------------------------------------------

 Call Graph Graphs:

 _main (ROOT)
   _SYSTEM_Initialize
     _EUSART_Initialize
       _EUSART_SetErrorHandler
       _EUSART_SetFramingErrorHandler
       _EUSART_SetOverrunErrorHandler
     _OSCILLATOR_Initialize
     _PIN_MANAGER_Initialize
     _WDT_Initialize
   _printf
     ___lwdiv
     ___lwmod
       ___lwdiv (ARG)
     _putch
       _EUSART_Write
   _putch
     _EUSART_Write
   _recv_daikin_frame
     _bit_find
     _putch
       _EUSART_Write
   _recv_daikin_reader
     _bit_find
     _printf
       ___lwdiv
       ___lwmod
         ___lwdiv (ARG)
       _putch
         _EUSART_Write
     _putch
       _EUSART_Write
   _recv_reader

 Address spaces:
Name               Size   Autos  Total    Cost      Usage
BIGRAM             170      0       0       0        0.0%
EEDATA             100      0       0       0        0.0%
NULL                 0      0       0       0        0.0%
CODE                 0      0       0       0        0.0%
BITCOMMON            E      0       0       1        0.0%
BITSFR0              0      0       0       1        0.0%
SFR0                 0      0       0       1        0.0%
COMMON               E      E       E       2      100.0%
BITSFR1              0      0       0       2        0.0%
SFR1                 0      0       0       2        0.0%
BITSFR2              0      0       0       3        0.0%
SFR2                 0      0       0       3        0.0%
STACK                0      0       0       3        0.0%
BITSFR3              0      0       0       4        0.0%
SFR3                 0      0       0       4        0.0%
ABS                  0      0      2A       4        0.0%
BITBANK0            50      0       0       5        0.0%
BITSFR4              0      0       0       5        0.0%
SFR4                 0      0       0       5        0.0%
BANK0               50     15      1C       6       35.0%
BITSFR5              0      0       0       6        0.0%
SFR5                 0      0       0       6        0.0%
BITBANK1            50      0       0       7        0.0%
BITSFR6              0      0       0       7        0.0%
SFR6                 0      0       0       7        0.0%
BANK1               50      0       0       8        0.0%
BITSFR7              0      0       0       8        0.0%
SFR7                 0      0       0       8        0.0%
BITBANK2            50      0       0       9        0.0%
BITSFR8              0      0       0       9        0.0%
SFR8                 0      0       0       9        0.0%
BANK2               50      0       0      10        0.0%
BITSFR9              0      0       0      10        0.0%
SFR9                 0      0       0      10        0.0%
BITBANK3            50      0       0      11        0.0%
BITSFR10             0      0       0      11        0.0%
SFR10                0      0       0      11        0.0%
BANK3               50      0       0      12        0.0%
BITSFR11             0      0       0      12        0.0%
SFR11                0      0       0      12        0.0%
BITBANK4            30      0       0      13        0.0%
BITSFR12             0      0       0      13        0.0%
SFR12                0      0       0      13        0.0%
BANK4               30      0       0      14        0.0%
BITSFR13             0      0       0      14        0.0%
SFR13                0      0       0      14        0.0%
BITSFR14             0      0       0      15        0.0%
SFR14                0      0       0      15        0.0%
DATA                 0      0      2A      15        0.0%
BITSFR15             0      0       0      16        0.0%
SFR15                0      0       0      16        0.0%
BITSFR16             0      0       0      17        0.0%
SFR16                0      0       0      17        0.0%
BITSFR17             0      0       0      18        0.0%
SFR17                0      0       0      18        0.0%
BITSFR18             0      0       0      19        0.0%
SFR18                0      0       0      19        0.0%
BITSFR19             0      0       0      20        0.0%
SFR19                0      0       0      20        0.0%
BITSFR20             0      0       0      21        0.0%
SFR20                0      0       0      21        0.0%
BITSFR21             0      0       0      22        0.0%
SFR21                0      0       0      22        0.0%
BITSFR22             0      0       0      23        0.0%
SFR22                0      0       0      23        0.0%
BITSFR23             0      0       0      24        0.0%
SFR23                0      0       0      24        0.0%
BITSFR24             0      0       0      25        0.0%
SFR24                0      0       0      25        0.0%
BITSFR25             0      0       0      26        0.0%
SFR25                0      0       0      26        0.0%
BITSFR26             0      0       0      27        0.0%
SFR26                0      0       0      27        0.0%
BITSFR27             0      0       0      28        0.0%
SFR27                0      0       0      28        0.0%
BITSFR28             0      0       0      29        0.0%
SFR28                0      0       0      29        0.0%
BITSFR29             0      0       0      30        0.0%
SFR29                0      0       0      30        0.0%
BITSFR30             0      0       0      31        0.0%
SFR30                0      0       0      31        0.0%
BITSFR31             0      0       0      32        0.0%
SFR31                0      0       0      32        0.0%


Microchip Technology PIC Macro Assembler V2.20 build 20200408173844 
Symbol Table                                                                                   Thu May 07 00:25:40 2020

                           recv_daikin_frame@a 0076                             recv_daikin_frame@i 0075  
                                           l43 0572                                             l70 051E  
                                           l82 0508                                             l67 0516  
                                           l85 050E                                             l88 0502  
                                          l112 0525                                            l115 052A  
                                          l109 0537                                            l118 04FC  
                                          l222 069F                                            l143 054F  
                                          l207 05C7                                            l216 0598  
                                          l225 06B4                                            l190 066F  
                                          l169 0514                                            l189 0674  
                                          l456 07F4                                            l732 0637  
                                          l742 05FB                                            u510 0614  
                                          u511 0613                                            u505 0608  
                                          u530 0623                                            u610 05F7  
                                          u531 0622                                            u611 05F6  
                                          u620 052A                                            u700 0685  
                                          u621 0529                                            u701 0684  
                                          u525 0615                                            u605 05ED  
                                          u710 069D                                            u550 0633  
                                          u630 073F                                            u711 069C  
                                          u551 0632                                            u535 061F  
                                          u631 073E                                            u720 06A4  
                                          u480 051B                                            u800 058D  
                                          u560 05CE                                            u640 076B  
                                          u721 06A3                                            u481 051A  
                                          u801 058C                                            u545 0629  
                                          u561 05CD                                            u641 076A  
                                          u730 06B1                                            u810 0598  
                                          u490 0604                                            u650 078F  
                                          u731 06B0                                            u715 0699  
                                          u811 0597                                            u491 0603  
                                          u651 078E                                            u580 05DE  
                                          u660 079A                                            u740 05B2  
                                          u581 05DD                                            u661 0799  
                                          u741 05B1                                            u590 05E8  
                                          u670 07A0                                            u750 0648  
                                          u735 06AD                                            u591 05E7  
                                          u575 05D2                                            u671 079F  
                                          u655 078B                                            u751 0647  
                                          u680 07DF                                            u760 0655  
                                          u840 06D6                                            u681 07DE  
                                          u761 0654                                            u841 06D5  
                                          u690 07F4                                            u770 066E  
                                          u595 05E4                                            u691 07F3  
                                          u771 066D                                            u907 0702  
                                          u780 0674                                            u781 0673  
                                          u765 0651                                            u917 0640  
                                          u790 0587                                            u791 0586  
                                          u775 066A                                            u927 065E  
                                          u937 05B8                                            u947 067D  
                                          u957 068D                                            u887 06CE  
                                          u897 06EA                            recv_daikin_reader@a 0030  
                          recv_daikin_reader@i 0031                 ?_EUSART_SetFramingErrorHandler 0070  
                                          wreg 0009                                           l1400 0562  
                                         l1402 0569                                           l1410 053E  
                                         l1340 0503                                           l1404 0570  
                                         l1420 054D                                           l1412 0540  
                                         l1500 06B3                                           l1342 0509  
                                         l1422 051F                                           l1414 0543  
                                         l1406 0538                                           l1350 05FE  
                                         l1430 0733                                           l1344 04FD  
                                         l1424 0522                                           l1416 0548  
                                         l1408 053B                                           l1504 052B  
                                         l1336 0516                                           l1360 0614  
                                         l1352 0604                                           l1440 0745  
                                         l1432 0739                                           l1520 05B2  
                                         l1512 059B                                           l1600 070C  
                                         l1426 0523                                           l1418 054A  
                                         l1338 051B                                           l1346 0510  
                                         l1362 0623                                           l1354 0607  
                                         l1370 0633                                           l1450 076F  
                                         l1442 075C                                           l1434 073F  
                                         l1522 05BF                                           l1514 05A2  
                                         l1506 0599                                           l1530 0648  
                                         l1602 0710                                           l1428 04F9  
                                         l1540 0574                                           l1364 0627  
                                         l1356 060C                                           l1348 05FC  
                                         l1380 05D6                                           l1452 0774  
                                         l1444 0763                                           l1436 0744  
                                         l1516 05A7                                           l1524 0638  
                                         l1604 0714                                           l1550 058E  
                                         l1542 0576                                           l1366 0628  
                                         l1358 0610                                           l1390 05F1  
                                         l1382 05DA                                           l1374 05C8  
                                         l1470 07AA                                           l1462 0790  
                                         l1446 0767                                           l1518 05AC  
                                         l1534 0656                                           l1526 063B  
                                         l1606 071C                                           l1480 0678  
                                         l1544 057C                                           l1552 0592  
                                         l1368 062D                                           l1384 05DE  
                                         l1376 05CE                                           l1392 05F7  
                                         l1472 07D1                                           l1464 079A  
                                         l1448 076B                                           l1536 0659  
                                         l1528 0643                                           l1608 072B  
                                         l1482 0680                                           l1546 0581  
                                         l1386 05E8                                           l1378 05D1  
                                         l1474 07D5                                           l1466 07A0  
                                         l1458 0776                                           l1570 06C0  
                                         l1396 0550                                           l1492 06A4  
                                         l1484 0685                                           l1548 0587  
                                         l1388 05EC                                           l1468 07A4  
                                         l1476 07DF                                           l1580 06D6  
                                         l1572 06C8                                           l1398 055B  
                                         l1494 06B1                                           l1486 0688  
                                         l1478 0675                                           l1590 06F1  
                                         l1582 06D9                                           l1574 06CA  
                                         l1566 06B5                                           l1488 069D  
                                         l1592 06F4                                           l1584 06DC  
                                         l1576 06CD                                           l1568 06B8  
                                         l1594 06F8                                           l1586 06E0  
                                         l1578 06D1                                           l1596 06FC  
                                         l1588 06E4                                           l1598 0709  
                                         STR_1 084B                                           STR_2 082B  
                                         STR_3 085E                                           STR_4 080A  
                                         STR_5 0864                                           _LATA 010C  
                                         _LATB 010D                                           _PLLR 04D6  
                                         _WPUA 020C                                           _WPUB 020D  
                                         _main 06B5                                           fsr0h 0005  
                                         fsr1h 0007                                           indf0 0000  
                                         fsr0l 0004                                           fsr1l 0006  
                                         btemp 007E                                           start 0002  
                        recv_daikin_frame@size 0074                                  ?_EUSART_Write 0070  
               __size_of_OSCILLATOR_Initialize 000C                  __end_of_OSCILLATOR_Initialize 052B  
                                        ?_main 0070                                __end_of___lwdiv 0638  
                              __end_of___lwmod 05FC                                          _RCREG 0199  
                            _recv_daikin_frame 0573                                          _RCSTA 019D  
                                        _TRISA 008C                                          _TRISB 008D  
                                        _TXREG 019A                                          _TXSTA 019E  
                           ?_recv_daikin_frame 0070                                __end_of_dpowers 080A  
                               _WDT_Initialize 04F9                                          _putch 050F  
                          ??_recv_daikin_frame 0073                                          status 0003  
                                        wtemp0 007E                                __initialization 07F5  
                                 __end_of_main 0733                                 ??_EUSART_Write 0070  
                                 ?_recv_reader 0070                      __end_of_recv_daikin_frame 0599  
                                       ??_main 0032                         __end_of_WDT_Initialize 04FD  
            _EUSART_DefaultFramingErrorHandler 0000                     _EUSART_OverrunErrorHandler 0037  
                                       _ANSELA 018C                                         ?_putch 0070  
                                       _ANSELB 018D                                         _BORCON 0116  
                                       _OSCCON 0099                                         _SPBRGH 019C  
                                       _SPBRGL 019B                             _recv_daikin_reader 0599  
                                       _WDTCON 0097                               __end_of_bit_find 06B5  
                          ?_recv_daikin_reader 0070                                      ??___lwdiv 0074  
                                    ??___lwmod 007C                                         _printf 0733  
                              ?_WDT_Initialize 0070                           ??_recv_daikin_reader 002E  
                            _SYSTEM_Initialize 052B                        __end_of__initialization 07FD  
                           ?_SYSTEM_Initialize 0070                                 __pcstackCOMMON 0070  
                          ??_SYSTEM_Initialize 0072                                  __end_of_putch 0515  
                   __size_of_recv_daikin_frame 0026                                 _OPTION_REGbits 0095  
              ??_EUSART_SetOverrunErrorHandler 0072                      __end_of_SYSTEM_Initialize 0538  
                                      ??_putch 0071                                     __pbssBANK0 0035  
                         __end_of_EUSART_Write 051F                                     __pmaintext 06B5  
                                      _BAUDCON 019F                                        _APFCON0 011D  
                                      _APFCON1 011E                                        ?_printf 0020  
                         __size_of_recv_reader 003D                                      ?_bit_find 0070  
                                      _OSCTUNE 0098                       ??_EUSART_SetErrorHandler 0072  
                                      ___lwdiv 05FC                                        ___lwmod 05C8  
                                      __ptext1 0638                                        __ptext2 0599  
                                      __ptext3 0733                                        __ptext4 05C8  
                                      __ptext5 05FC                                        __ptext6 0573  
                                      __ptext7 050F                                        __ptext8 0515  
                                      __ptext9 0675                                __size_of_printf 00C2  
                                      _dpowers 0800                          _OSCILLATOR_Initialize 051F  
                     ??_PIN_MANAGER_Initialize 0070                                     ??_bit_find 0070  
                                      main@cnt 0034                     __size_of_SYSTEM_Initialize 000D  
                         end_of_initialization 07FD          __end_of_EUSART_SetOverrunErrorHandler 050F  
       __size_of_EUSART_SetOverrunErrorHandler 0006                  _EUSART_SetOverrunErrorHandler 0509  
                            _EUSART_Initialize 0550                             ?_EUSART_Initialize 0070  
                                    _RCSTAbits 019D                                        printf@c 002D  
                                      printf@f 0020                            ??_EUSART_Initialize 0072  
                             ??_WDT_Initialize 0070                                      _PORTAbits 000C  
                        __size_of_EUSART_Write 000A                __size_of_EUSART_SetErrorHandler 0006  
                    __end_of_EUSART_Initialize 0573                                      _TXSTAbits 019E  
                   _EUSART_DefaultErrorHandler 0000                                   _EUSART_Write 0515  
                       ?_OSCILLATOR_Initialize 0070                                 __end_of_printf 07F5  
                          start_initialization 07F5                __size_of_PIN_MANAGER_Initialize 0018  
                  __size_of_recv_daikin_reader 002F                 ?_EUSART_SetOverrunErrorHandler 0070  
                   _EUSART_FramingErrorHandler 0039                         _EUSART_SetErrorHandler 04FD  
                                     ??_printf 0024                                      ___latbits 0001  
                                __pcstackBANK0 0020                              __size_of_bit_find 0040  
                   __size_of_EUSART_Initialize 0023                                  bit_find@width 0071  
                             ___lwdiv@dividend 0072                         _PIN_MANAGER_Initialize 0538  
                                     ?___lwdiv 0070                                       ?___lwmod 0078  
                             recv_reader@width 0071                                  ??_recv_reader 0070  
                             ___lwdiv@quotient 0075                                 __size_of_putch 0006  
                                     _LATAbits 010C         EUSART_SetErrorHandler@interruptHandler 0070  
                            _eusartRxLastError 003B                                       _PIR1bits 0011  
              ??_EUSART_SetFramingErrorHandler 0072              _EUSART_DefaultOverrunErrorHandler 0000  
                                   printf@flag 0029                                     printf@prec 002A  
                          __end_of_recv_reader 0675                        ??_OSCILLATOR_Initialize 0070  
                          _EUSART_ErrorHandler 0035                               __size_of___lwdiv 003C  
                             __size_of___lwmod 0034                                ___lwdiv@divisor 0070  
                                     _bit_find 0675                                ___lwdiv@counter 0077  
                                     __ptext10 052B                                       __ptext11 04F9  
                                     __ptext12 0538                                       __ptext13 051F  
                                     __ptext14 0550                                       __ptext15 0509  
                                     __ptext16 0503                                       __ptext17 04FD  
                                __size_of_main 007E                        ?_EUSART_SetErrorHandler 0070  
EUSART_SetOverrunErrorHandler@interruptHandler 0070          __end_of_EUSART_SetFramingErrorHandler 0509  
       __size_of_EUSART_SetFramingErrorHandler 0006                  _EUSART_SetFramingErrorHandler 0503  
                                    printf@val 002B                                    _recv_reader 0638  
                                    putch@data 0071                     __end_of_recv_daikin_reader 05C8  
                      __size_of_WDT_Initialize 0004                               ___lwmod@dividend 007A  
                      ?_PIN_MANAGER_Initialize 0070                 __end_of_EUSART_SetErrorHandler 0503  
                                     printf@ap 0028  EUSART_SetFramingErrorHandler@interruptHandler 0070  
                                __pstringtext1 0800                                  __pstringtext2 082B  
                                __pstringtext3 084B                                  __pstringtext4 085E  
                                __pstringtext5 0864                                  __pstringtext6 0000  
                              ___lwmod@divisor 0078                                ___lwmod@counter 007D  
                           EUSART_Write@txData 0070                 __end_of_PIN_MANAGER_Initialize 0550  
